
PJT_TempSensor_Tutorial.elf:     file format elf32-avr

Sections:
Idx Name          Size      VMA       LMA       File off  Algn
  0 .data         0000002e  00800100  000011de  00001272  2**0
                  CONTENTS, ALLOC, LOAD, DATA
  1 .text         000011de  00000000  00000000  00000094  2**1
                  CONTENTS, ALLOC, LOAD, READONLY, CODE
  2 .bss          00000012  0080012e  0080012e  000012a0  2**0
                  ALLOC
  3 .comment      0000005c  00000000  00000000  000012a0  2**0
                  CONTENTS, READONLY
  4 .note.gnu.avr.deviceinfo 00000040  00000000  00000000  000012fc  2**2
                  CONTENTS, READONLY
  5 .debug_aranges 00000070  00000000  00000000  0000133c  2**0
                  CONTENTS, READONLY, DEBUGGING
  6 .debug_info   00000ec3  00000000  00000000  000013ac  2**0
                  CONTENTS, READONLY, DEBUGGING
  7 .debug_abbrev 00000ab8  00000000  00000000  0000226f  2**0
                  CONTENTS, READONLY, DEBUGGING
  8 .debug_line   000005e8  00000000  00000000  00002d27  2**0
                  CONTENTS, READONLY, DEBUGGING
  9 .debug_frame  000000e0  00000000  00000000  00003310  2**2
                  CONTENTS, READONLY, DEBUGGING
 10 .debug_str    00000507  00000000  00000000  000033f0  2**0
                  CONTENTS, READONLY, DEBUGGING
 11 .debug_loc    00000490  00000000  00000000  000038f7  2**0
                  CONTENTS, READONLY, DEBUGGING
 12 .debug_ranges 00000040  00000000  00000000  00003d87  2**0
                  CONTENTS, READONLY, DEBUGGING

Disassembly of section .text:

00000000 <__vectors>:
       0:	c6 c0       	rjmp	.+396    	; 0x18e <__ctors_end>
       2:	00 00       	nop
       4:	e2 c0       	rjmp	.+452    	; 0x1ca <__bad_interrupt>
       6:	00 00       	nop
       8:	e0 c0       	rjmp	.+448    	; 0x1ca <__bad_interrupt>
       a:	00 00       	nop
       c:	de c0       	rjmp	.+444    	; 0x1ca <__bad_interrupt>
       e:	00 00       	nop
      10:	dc c0       	rjmp	.+440    	; 0x1ca <__bad_interrupt>
      12:	00 00       	nop
      14:	da c0       	rjmp	.+436    	; 0x1ca <__bad_interrupt>
      16:	00 00       	nop
      18:	d8 c0       	rjmp	.+432    	; 0x1ca <__bad_interrupt>
      1a:	00 00       	nop
      1c:	d6 c0       	rjmp	.+428    	; 0x1ca <__bad_interrupt>
      1e:	00 00       	nop
      20:	d4 c0       	rjmp	.+424    	; 0x1ca <__bad_interrupt>
      22:	00 00       	nop
      24:	d2 c0       	rjmp	.+420    	; 0x1ca <__bad_interrupt>
      26:	00 00       	nop
      28:	d0 c0       	rjmp	.+416    	; 0x1ca <__bad_interrupt>
      2a:	00 00       	nop
      2c:	ce c0       	rjmp	.+412    	; 0x1ca <__bad_interrupt>
      2e:	00 00       	nop
      30:	cc c0       	rjmp	.+408    	; 0x1ca <__bad_interrupt>
      32:	00 00       	nop
      34:	ca c0       	rjmp	.+404    	; 0x1ca <__bad_interrupt>
      36:	00 00       	nop
      38:	c8 c0       	rjmp	.+400    	; 0x1ca <__bad_interrupt>
      3a:	00 00       	nop
      3c:	c6 c0       	rjmp	.+396    	; 0x1ca <__bad_interrupt>
      3e:	00 00       	nop
      40:	c4 c0       	rjmp	.+392    	; 0x1ca <__bad_interrupt>
      42:	00 00       	nop
      44:	c2 c0       	rjmp	.+388    	; 0x1ca <__bad_interrupt>
      46:	00 00       	nop
      48:	c0 c0       	rjmp	.+384    	; 0x1ca <__bad_interrupt>
      4a:	00 00       	nop
      4c:	be c0       	rjmp	.+380    	; 0x1ca <__bad_interrupt>
      4e:	00 00       	nop
      50:	bc c0       	rjmp	.+376    	; 0x1ca <__bad_interrupt>
      52:	00 00       	nop
      54:	ba c0       	rjmp	.+372    	; 0x1ca <__bad_interrupt>
      56:	00 00       	nop
      58:	b8 c0       	rjmp	.+368    	; 0x1ca <__bad_interrupt>
      5a:	00 00       	nop
      5c:	b6 c0       	rjmp	.+364    	; 0x1ca <__bad_interrupt>
      5e:	00 00       	nop
      60:	b4 c0       	rjmp	.+360    	; 0x1ca <__bad_interrupt>
      62:	00 00       	nop
      64:	b2 c0       	rjmp	.+356    	; 0x1ca <__bad_interrupt>
      66:	00 00       	nop
      68:	b0 c0       	rjmp	.+352    	; 0x1ca <__bad_interrupt>
      6a:	00 00       	nop
      6c:	ae c0       	rjmp	.+348    	; 0x1ca <__bad_interrupt>
      6e:	00 00       	nop
      70:	ac c0       	rjmp	.+344    	; 0x1ca <__bad_interrupt>
      72:	00 00       	nop
      74:	aa c0       	rjmp	.+340    	; 0x1ca <__bad_interrupt>
      76:	00 00       	nop
      78:	a8 c0       	rjmp	.+336    	; 0x1ca <__bad_interrupt>
      7a:	00 00       	nop
      7c:	a6 c0       	rjmp	.+332    	; 0x1ca <__bad_interrupt>
      7e:	00 00       	nop
      80:	a4 c0       	rjmp	.+328    	; 0x1ca <__bad_interrupt>
      82:	00 00       	nop
      84:	a2 c0       	rjmp	.+324    	; 0x1ca <__bad_interrupt>
      86:	00 00       	nop
      88:	a0 c0       	rjmp	.+320    	; 0x1ca <__bad_interrupt>
	...

0000008c <__trampolines_end>:
      8c:	6e 61       	ori	r22, 0x1E	; 30
      8e:	6e 00       	.word	0x006e	; ????

00000090 <__c.2332>:
      90:	69 6e 66 00 00 40 7a 10 f3 5a 00 a0 72 4e 18 09     inf..@z..Z..rN..
      a0:	00 10 a5 d4 e8 00 00 e8 76 48 17 00 00 e4 0b 54     ........vH.....T
      b0:	02 00 00 ca 9a 3b 00 00 00 e1 f5 05 00 00 80 96     .....;..........
      c0:	98 00 00 00 40 42 0f 00 00 00 a0 86 01 00 00 00     ....@B..........
      d0:	10 27 00 00 00 00 e8 03 00 00 00 00 64 00 00 00     .'..........d...
      e0:	00 00 0a 00 00 00 00 00 01 00 00 00 00 00 2c 76     ..............,v
      f0:	d8 88 dc 67 4f 08 23 df c1 df ae 59 e1 b1 b7 96     ...gO.#....Y....
     100:	e5 e3 e4 53 c6 3a e6 51 99 76 96 e8 e6 c2 84 26     ...S.:.Q.v.....&
     110:	eb 89 8c 9b 62 ed 40 7c 6f fc ef bc 9c 9f 40 f2     ....b.@|o.....@.
     120:	ba a5 6f a5 f4 90 05 5a 2a f7 5c 93 6b 6c f9 67     ..o....Z*.\.kl.g
     130:	6d c1 1b fc e0 e4 0d 47 fe f5 20 e6 b5 00 d0 ed     m......G.. .....
     140:	90 2e 03 00 94 35 77 05 00 80 84 1e 08 00 00 20     .....5w........ 
     150:	4e 0a 00 00 00 c8 0c 33 33 33 33 0f 98 6e 12 83     N......3333..n..
     160:	11 41 ef 8d 21 14 89 3b e6 55 16 cf fe e6 db 18     .A..!..;.U......
     170:	d1 84 4b 38 1b f7 7c 1d 90 1d a4 bb e4 24 20 32     ..K8..|......$ 2
     180:	84 72 5e 22 81 00 c9 f1 24 ec a1 e5 3d 27           .r^"....$...='

0000018e <__ctors_end>:
     18e:	11 24       	eor	r1, r1
     190:	1f be       	out	0x3f, r1	; 63
     192:	cf ef       	ldi	r28, 0xFF	; 255
     194:	d0 e1       	ldi	r29, 0x10	; 16
     196:	de bf       	out	0x3e, r29	; 62
     198:	cd bf       	out	0x3d, r28	; 61

0000019a <__do_copy_data>:
     19a:	11 e0       	ldi	r17, 0x01	; 1
     19c:	a0 e0       	ldi	r26, 0x00	; 0
     19e:	b1 e0       	ldi	r27, 0x01	; 1
     1a0:	ee ed       	ldi	r30, 0xDE	; 222
     1a2:	f1 e1       	ldi	r31, 0x11	; 17
     1a4:	00 e0       	ldi	r16, 0x00	; 0
     1a6:	0b bf       	out	0x3b, r16	; 59
     1a8:	02 c0       	rjmp	.+4      	; 0x1ae <__do_copy_data+0x14>
     1aa:	07 90       	elpm	r0, Z+
     1ac:	0d 92       	st	X+, r0
     1ae:	ae 32       	cpi	r26, 0x2E	; 46
     1b0:	b1 07       	cpc	r27, r17
     1b2:	d9 f7       	brne	.-10     	; 0x1aa <__do_copy_data+0x10>

000001b4 <__do_clear_bss>:
     1b4:	21 e0       	ldi	r18, 0x01	; 1
     1b6:	ae e2       	ldi	r26, 0x2E	; 46
     1b8:	b1 e0       	ldi	r27, 0x01	; 1
     1ba:	01 c0       	rjmp	.+2      	; 0x1be <.do_clear_bss_start>

000001bc <.do_clear_bss_loop>:
     1bc:	1d 92       	st	X+, r1

000001be <.do_clear_bss_start>:
     1be:	a0 34       	cpi	r26, 0x40	; 64
     1c0:	b2 07       	cpc	r27, r18
     1c2:	e1 f7       	brne	.-8      	; 0x1bc <.do_clear_bss_loop>
     1c4:	03 d0       	rcall	.+6      	; 0x1cc <main>
     1c6:	0c 94 ed 08 	jmp	0x11da	; 0x11da <_exit>

000001ca <__bad_interrupt>:
     1ca:	1a cf       	rjmp	.-460    	; 0x0 <__vectors>

000001cc <main>:
#include "sensor.h"
#include "uart.h"

int main(void)
{
	FILE* fpStdio = fdevopen(tranmitUart0String, NULL);
     1cc:	60 e0       	ldi	r22, 0x00	; 0
     1ce:	70 e0       	ldi	r23, 0x00	; 0
     1d0:	8a ef       	ldi	r24, 0xFA	; 250
     1d2:	91 e0       	ldi	r25, 0x01	; 1
     1d4:	c9 d5       	rcall	.+2962   	; 0xd68 <fdevopen>
    initUart0(BAURD_RATE_X2_115200);
     1d6:	80 e1       	ldi	r24, 0x10	; 16
     1d8:	90 e0       	ldi	r25, 0x00	; 0
     1da:	ff d0       	rcall	.+510    	; 0x3da <initUart0>
    while (1) 
    {
		getTemperature();
		printf("Temperature = %.2f // Humidity = %.2f\r\n", temp, humid);
     1dc:	c6 e0       	ldi	r28, 0x06	; 6
{
	FILE* fpStdio = fdevopen(tranmitUart0String, NULL);
    initUart0(BAURD_RATE_X2_115200);
    while (1) 
    {
		getTemperature();
     1de:	d1 e0       	ldi	r29, 0x01	; 1
     1e0:	2d d0       	rcall	.+90     	; 0x23c <getTemperature>
		printf("Temperature = %.2f // Humidity = %.2f\r\n", temp, humid);
     1e2:	80 91 35 01 	lds	r24, 0x0135	; 0x800135 <humid+0x3>
     1e6:	8f 93       	push	r24
     1e8:	80 91 34 01 	lds	r24, 0x0134	; 0x800134 <humid+0x2>
     1ec:	8f 93       	push	r24
     1ee:	80 91 33 01 	lds	r24, 0x0133	; 0x800133 <humid+0x1>
     1f2:	8f 93       	push	r24
     1f4:	80 91 32 01 	lds	r24, 0x0132	; 0x800132 <humid>
     1f8:	8f 93       	push	r24
     1fa:	80 91 31 01 	lds	r24, 0x0131	; 0x800131 <__data_end+0x3>
     1fe:	8f 93       	push	r24
     200:	80 91 30 01 	lds	r24, 0x0130	; 0x800130 <__data_end+0x2>
     204:	8f 93       	push	r24
     206:	80 91 2f 01 	lds	r24, 0x012F	; 0x80012f <__data_end+0x1>
     20a:	8f 93       	push	r24
     20c:	80 91 2e 01 	lds	r24, 0x012E	; 0x80012e <__data_end>
     210:	8f 93       	push	r24
     212:	df 93       	push	r29
     214:	cf 93       	push	r28
     216:	2e d6       	rcall	.+3164   	; 0xe74 <printf>
	#else
		//round up by default
		__ticks_dc = (uint32_t)(ceil(fabs(__tmp)));
	#endif

	__builtin_avr_delay_cycles(__ticks_dc);
     218:	9f ef       	ldi	r25, 0xFF	; 255
     21a:	29 e6       	ldi	r18, 0x69	; 105
     21c:	88 e1       	ldi	r24, 0x18	; 24
     21e:	91 50       	subi	r25, 0x01	; 1
     220:	20 40       	sbci	r18, 0x00	; 0
     222:	80 40       	sbci	r24, 0x00	; 0
     224:	e1 f7       	brne	.-8      	; 0x21e <main+0x52>
     226:	00 c0       	rjmp	.+0      	; 0x228 <main+0x5c>
     228:	00 00       	nop
     22a:	8d b7       	in	r24, 0x3d	; 61
     22c:	9e b7       	in	r25, 0x3e	; 62
     22e:	0a 96       	adiw	r24, 0x0a	; 10
     230:	0f b6       	in	r0, 0x3f	; 63
     232:	f8 94       	cli
     234:	9e bf       	out	0x3e, r25	; 62
     236:	0f be       	out	0x3f, r0	; 63
     238:	8d bf       	out	0x3d, r24	; 61
     23a:	d2 cf       	rjmp	.-92     	; 0x1e0 <main+0x14>

0000023c <getTemperature>:
#include "sensor.h"

float humid = 0, temp = 0;

uint8_t getTemperature(void)
{
     23c:	cf 92       	push	r12
     23e:	df 92       	push	r13
     240:	ef 92       	push	r14
     242:	ff 92       	push	r15
     244:	0f 93       	push	r16
     246:	1f 93       	push	r17
     248:	cf 93       	push	r28
     24a:	df 93       	push	r29
     24c:	00 d0       	rcall	.+0      	; 0x24e <getTemperature+0x12>
     24e:	00 d0       	rcall	.+0      	; 0x250 <getTemperature+0x14>
     250:	1f 92       	push	r1
     252:	cd b7       	in	r28, 0x3d	; 61
     254:	de b7       	in	r29, 0x3e	; 62
	uint8_t bitCnt = 0, byteCnt = 0;
	uint8_t inputByte[5];
	
	memset(inputByte, 0, sizeof(inputByte));
     256:	fe 01       	movw	r30, r28
     258:	31 96       	adiw	r30, 0x01	; 1
     25a:	85 e0       	ldi	r24, 0x05	; 5
     25c:	df 01       	movw	r26, r30
     25e:	1d 92       	st	X+, r1
     260:	8a 95       	dec	r24
     262:	e9 f7       	brne	.-6      	; 0x25e <getTemperature+0x22>
	
	//초기화 : PORT F를 출력으로 설정
	TEMP_DDR |= 0x01;
     264:	d0 9a       	sbi	0x1a, 0	; 26
	//1번 핀 high
	TEMP_PORT |= 0x01;
     266:	d8 9a       	sbi	0x1b, 0	; 27
     268:	bf ef       	ldi	r27, 0xFF	; 255
     26a:	21 ee       	ldi	r18, 0xE1	; 225
     26c:	84 e0       	ldi	r24, 0x04	; 4
     26e:	b1 50       	subi	r27, 0x01	; 1
     270:	20 40       	sbci	r18, 0x00	; 0
     272:	80 40       	sbci	r24, 0x00	; 0
     274:	e1 f7       	brne	.-8      	; 0x26e <getTemperature+0x32>
     276:	00 c0       	rjmp	.+0      	; 0x278 <getTemperature+0x3c>
     278:	00 00       	nop
	_delay_ms(100);
	
	//1번 핀 low
	TEMP_PORT &= ~0x01;
     27a:	d8 98       	cbi	0x1b, 0	; 27
     27c:	9f ef       	ldi	r25, 0xFF	; 255
     27e:	a0 ee       	ldi	r26, 0xE0	; 224
     280:	b0 e0       	ldi	r27, 0x00	; 0
     282:	91 50       	subi	r25, 0x01	; 1
     284:	a0 40       	sbci	r26, 0x00	; 0
     286:	b0 40       	sbci	r27, 0x00	; 0
     288:	e1 f7       	brne	.-8      	; 0x282 <getTemperature+0x46>
     28a:	00 c0       	rjmp	.+0      	; 0x28c <getTemperature+0x50>
     28c:	00 00       	nop
	_delay_ms(18);
	//1번 핀 high
	TEMP_PORT |= 0x01;
     28e:	d8 9a       	sbi	0x1b, 0	; 27
	#else
		//round up by default
		__ticks_dc = (uint32_t)(ceil(fabs(__tmp)));
	#endif

	__builtin_avr_delay_cycles(__ticks_dc);
     290:	25 e0       	ldi	r18, 0x05	; 5
     292:	2a 95       	dec	r18
     294:	f1 f7       	brne	.-4      	; 0x292 <getTemperature+0x56>
     296:	00 00       	nop
	_delay_us(1);
	//1번 핀을 출력 -> 입력으로 변경
	TEMP_DDR &= ~0x01;
     298:	d0 98       	cbi	0x1a, 0	; 26
     29a:	80 ed       	ldi	r24, 0xD0	; 208
     29c:	8a 95       	dec	r24
     29e:	f1 f7       	brne	.-4      	; 0x29c <getTemperature+0x60>
	_delay_us(39);
	
	//에러 검출1
	if((TEMP_PIN & 0x01))
     2a0:	c8 99       	sbic	0x19, 0	; 25
     2a2:	87 c0       	rjmp	.+270    	; 0x3b2 <getTemperature+0x176>
     2a4:	af e3       	ldi	r26, 0x3F	; 63
     2a6:	b1 e0       	ldi	r27, 0x01	; 1
     2a8:	11 97       	sbiw	r26, 0x01	; 1
     2aa:	f1 f7       	brne	.-4      	; 0x2a8 <getTemperature+0x6c>
     2ac:	00 c0       	rjmp	.+0      	; 0x2ae <getTemperature+0x72>
     2ae:	00 00       	nop
		return TEMP_ERROR;
	_delay_us(80);
	//에러 검출2
	if(!(TEMP_PIN & TEMP_INPUT_PIN))
     2b0:	c8 9b       	sbis	0x19, 0	; 25
     2b2:	81 c0       	rjmp	.+258    	; 0x3b6 <getTemperature+0x17a>
     2b4:	8f e3       	ldi	r24, 0x3F	; 63
     2b6:	91 e0       	ldi	r25, 0x01	; 1
     2b8:	01 97       	sbiw	r24, 0x01	; 1
     2ba:	f1 f7       	brne	.-4      	; 0x2b8 <getTemperature+0x7c>
     2bc:	00 c0       	rjmp	.+0      	; 0x2be <getTemperature+0x82>
     2be:	00 00       	nop
     2c0:	de 01       	movw	r26, r28
     2c2:	16 96       	adiw	r26, 0x06	; 6
			//따라서, _delay_us(30) 이후 GPIO PIN 값을 read했을 때 low이면 0이 되고, high로 유지하고 있으면 1이 됩니다.
			_delay_us(30);
			
			//GPIO pin이 high일 경우
			if(TEMP_PIN & TEMP_INPUT_PIN)
				result |= (1 << (7 - bitCnt));
     2c4:	61 e0       	ldi	r22, 0x01	; 1
     2c6:	70 e0       	ldi	r23, 0x00	; 0
     2c8:	1b c0       	rjmp	.+54     	; 0x300 <getTemperature+0xc4>
		{
			//해당 GPIO핀이 low이면 loop 수행, high일 경우 탈출
			//Ex : high case logic : NOT(1 AND 1) = 0이므로 참이 아니므로 반복문 탈출
			//Ex2 : low case logic : NOT(0 AND 1) = 1이므로 참이기 때문에 반복문 수행
			//while loop는 while(조건)으로 되있는데 조건이 참일 경우 반복문을 수행합니다 
			while(!(TEMP_PIN & TEMP_INPUT_PIN));
     2ca:	c8 9b       	sbis	0x19, 0	; 25
     2cc:	fe cf       	rjmp	.-4      	; 0x2ca <getTemperature+0x8e>
     2ce:	80 ea       	ldi	r24, 0xA0	; 160
     2d0:	8a 95       	dec	r24
     2d2:	f1 f7       	brne	.-4      	; 0x2d0 <getTemperature+0x94>
			//bit data가 1일 경우 high에서 70us동안 high를 유지한 후 low로 됩니다.
			//따라서, _delay_us(30) 이후 GPIO PIN 값을 read했을 때 low이면 0이 되고, high로 유지하고 있으면 1이 됩니다.
			_delay_us(30);
			
			//GPIO pin이 high일 경우
			if(TEMP_PIN & TEMP_INPUT_PIN)
     2d4:	c8 9b       	sbis	0x19, 0	; 25
     2d6:	08 c0       	rjmp	.+16     	; 0x2e8 <getTemperature+0xac>
				result |= (1 << (7 - bitCnt));
     2d8:	ab 01       	movw	r20, r22
     2da:	02 2e       	mov	r0, r18
     2dc:	02 c0       	rjmp	.+4      	; 0x2e2 <getTemperature+0xa6>
     2de:	44 0f       	add	r20, r20
     2e0:	55 1f       	adc	r21, r21
     2e2:	0a 94       	dec	r0
     2e4:	e2 f7       	brpl	.-8      	; 0x2de <getTemperature+0xa2>
     2e6:	94 2b       	or	r25, r20
			
			//다음 데이터 수신 준비를 위해 low가 될 때 까지 대기
			while(TEMP_PIN & TEMP_INPUT_PIN);
     2e8:	89 b3       	in	r24, 0x19	; 25
     2ea:	18 2f       	mov	r17, r24
     2ec:	11 70       	andi	r17, 0x01	; 1
     2ee:	80 fd       	sbrc	r24, 0
     2f0:	fb cf       	rjmp	.-10     	; 0x2e8 <getTemperature+0xac>
     2f2:	21 50       	subi	r18, 0x01	; 1
     2f4:	31 09       	sbc	r19, r1
     2f6:	48 f7       	brcc	.-46     	; 0x2ca <getTemperature+0x8e>
		}
		//8번 반복문으로 얻어진 데이터를 배열 변수에 저장
		inputByte[byteCnt] = result;
     2f8:	91 93       	st	Z+, r25
	if(!(TEMP_PIN & TEMP_INPUT_PIN))
		return TEMP_ERROR;
	_delay_us(80);
	
	//데이터 시트상 총 5개의 바이트가 수신 되어야 하기 때문에 반복문 5번 수행
	for(byteCnt = 0 ; byteCnt <= 4 ; byteCnt++)
     2fa:	ae 17       	cp	r26, r30
     2fc:	bf 07       	cpc	r27, r31
     2fe:	21 f0       	breq	.+8      	; 0x308 <getTemperature+0xcc>
#include "sensor.h"

float humid = 0, temp = 0;

uint8_t getTemperature(void)
{
     300:	27 e0       	ldi	r18, 0x07	; 7
     302:	30 e0       	ldi	r19, 0x00	; 0
     304:	90 e0       	ldi	r25, 0x00	; 0
     306:	e1 cf       	rjmp	.-62     	; 0x2ca <getTemperature+0x8e>
		//8번 반복문으로 얻어진 데이터를 배열 변수에 저장
		inputByte[byteCnt] = result;
	}
	
	//포트 초기화
	TEMP_DDR |= TEMP_INPUT_PIN;
     308:	d0 9a       	sbi	0x1a, 0	; 26
	TEMP_PORT |= TEMP_INPUT_PIN;
     30a:	d8 9a       	sbi	0x1b, 0	; 27
	#else
		//round up by default
		__ticks_dc = (uint32_t)(ceil(fabs(__tmp)));
	#endif

	__builtin_avr_delay_cycles(__ticks_dc);
     30c:	9f ef       	ldi	r25, 0xFF	; 255
     30e:	a1 ee       	ldi	r26, 0xE1	; 225
     310:	b4 e0       	ldi	r27, 0x04	; 4
     312:	91 50       	subi	r25, 0x01	; 1
     314:	a0 40       	sbci	r26, 0x00	; 0
     316:	b0 40       	sbci	r27, 0x00	; 0
     318:	e1 f7       	brne	.-8      	; 0x312 <getTemperature+0xd6>
     31a:	00 c0       	rjmp	.+0      	; 0x31c <getTemperature+0xe0>
     31c:	00 00       	nop
	inputByte[1] = 습도 소수
	inputByte[2] = 온도 정수
	inputByte[3] = 습도 정수
	inputByte[4] = checksum
	*/
	if ((0xff &(inputByte[0] + inputByte[1] + inputByte[2] + inputByte[3])) == inputByte[4])
     31e:	89 81       	ldd	r24, Y+1	; 0x01
     320:	6a 81       	ldd	r22, Y+2	; 0x02
     322:	70 e0       	ldi	r23, 0x00	; 0
     324:	68 0f       	add	r22, r24
     326:	71 1d       	adc	r23, r1
     328:	0b 81       	ldd	r16, Y+3	; 0x03
     32a:	c0 2e       	mov	r12, r16
     32c:	d1 2c       	mov	r13, r1
     32e:	ec 80       	ldd	r14, Y+4	; 0x04
     330:	f1 2c       	mov	r15, r1
     332:	cb 01       	movw	r24, r22
     334:	8c 0d       	add	r24, r12
     336:	9d 1d       	adc	r25, r13
     338:	8e 0d       	add	r24, r14
     33a:	9f 1d       	adc	r25, r15
     33c:	99 27       	eor	r25, r25
     33e:	2d 81       	ldd	r18, Y+5	; 0x05
     340:	30 e0       	ldi	r19, 0x00	; 0
     342:	82 17       	cp	r24, r18
     344:	93 07       	cpc	r25, r19
     346:	c9 f5       	brne	.+114    	; 0x3ba <getTemperature+0x17e>
	{
		humid = (float)(inputByte[0] + inputByte[1]);
     348:	07 2e       	mov	r0, r23
     34a:	00 0c       	add	r0, r0
     34c:	88 0b       	sbc	r24, r24
     34e:	99 0b       	sbc	r25, r25
     350:	59 d0       	rcall	.+178    	; 0x404 <__floatsisf>
     352:	60 93 32 01 	sts	0x0132, r22	; 0x800132 <humid>
     356:	70 93 33 01 	sts	0x0133, r23	; 0x800133 <humid+0x1>
     35a:	80 93 34 01 	sts	0x0134, r24	; 0x800134 <humid+0x2>
     35e:	90 93 35 01 	sts	0x0135, r25	; 0x800135 <humid+0x3>
		
		if(!(inputByte[2] & 0x80))
     362:	00 23       	and	r16, r16
     364:	8c f0       	brlt	.+34     	; 0x388 <getTemperature+0x14c>
		temp = (float)(inputByte[2] + inputByte[3]);
     366:	b6 01       	movw	r22, r12
     368:	6e 0d       	add	r22, r14
     36a:	7f 1d       	adc	r23, r15
     36c:	07 2e       	mov	r0, r23
     36e:	00 0c       	add	r0, r0
     370:	88 0b       	sbc	r24, r24
     372:	99 0b       	sbc	r25, r25
     374:	47 d0       	rcall	.+142    	; 0x404 <__floatsisf>
     376:	60 93 2e 01 	sts	0x012E, r22	; 0x80012e <__data_end>
     37a:	70 93 2f 01 	sts	0x012F, r23	; 0x80012f <__data_end+0x1>
     37e:	80 93 30 01 	sts	0x0130, r24	; 0x800130 <__data_end+0x2>
     382:	90 93 31 01 	sts	0x0131, r25	; 0x800131 <__data_end+0x3>
     386:	1a c0       	rjmp	.+52     	; 0x3bc <getTemperature+0x180>
		else
		{
			inputByte[2] = inputByte[2] & 0x7f;
			temp = -(float)(inputByte[2] + inputByte[3]);
     388:	0f 77       	andi	r16, 0x7F	; 127
     38a:	b7 01       	movw	r22, r14
     38c:	60 0f       	add	r22, r16
     38e:	71 1d       	adc	r23, r1
     390:	07 2e       	mov	r0, r23
     392:	00 0c       	add	r0, r0
     394:	88 0b       	sbc	r24, r24
     396:	99 0b       	sbc	r25, r25
     398:	35 d0       	rcall	.+106    	; 0x404 <__floatsisf>
     39a:	dc 01       	movw	r26, r24
     39c:	cb 01       	movw	r24, r22
     39e:	b0 58       	subi	r27, 0x80	; 128
     3a0:	80 93 2e 01 	sts	0x012E, r24	; 0x80012e <__data_end>
     3a4:	90 93 2f 01 	sts	0x012F, r25	; 0x80012f <__data_end+0x1>
     3a8:	a0 93 30 01 	sts	0x0130, r26	; 0x800130 <__data_end+0x2>
     3ac:	b0 93 31 01 	sts	0x0131, r27	; 0x800131 <__data_end+0x3>
     3b0:	05 c0       	rjmp	.+10     	; 0x3bc <getTemperature+0x180>
	TEMP_DDR &= ~0x01;
	_delay_us(39);
	
	//에러 검출1
	if((TEMP_PIN & 0x01))
		return TEMP_ERROR;
     3b2:	1f ef       	ldi	r17, 0xFF	; 255
     3b4:	03 c0       	rjmp	.+6      	; 0x3bc <getTemperature+0x180>
	_delay_us(80);
	//에러 검출2
	if(!(TEMP_PIN & TEMP_INPUT_PIN))
		return TEMP_ERROR;
     3b6:	1f ef       	ldi	r17, 0xFF	; 255
     3b8:	01 c0       	rjmp	.+2      	; 0x3bc <getTemperature+0x180>
			temp = -(float)(inputByte[2] + inputByte[3]);
		}
		return 0;
	}
	
	return TEMP_ERROR;
     3ba:	1f ef       	ldi	r17, 0xFF	; 255
}
     3bc:	81 2f       	mov	r24, r17
     3be:	0f 90       	pop	r0
     3c0:	0f 90       	pop	r0
     3c2:	0f 90       	pop	r0
     3c4:	0f 90       	pop	r0
     3c6:	0f 90       	pop	r0
     3c8:	df 91       	pop	r29
     3ca:	cf 91       	pop	r28
     3cc:	1f 91       	pop	r17
     3ce:	0f 91       	pop	r16
     3d0:	ff 90       	pop	r15
     3d2:	ef 90       	pop	r14
     3d4:	df 90       	pop	r13
     3d6:	cf 90       	pop	r12
     3d8:	08 95       	ret

000003da <initUart0>:
}

void transmitUart0(uint8_t data)
{
	while(!(UCSR0A & (1 << UDRE0)));
	UDR0 = data;
     3da:	10 92 90 00 	sts	0x0090, r1	; 0x800090 <__TEXT_REGION_LENGTH__+0x7e0090>
     3de:	89 b9       	out	0x09, r24	; 9
     3e0:	59 9a       	sbi	0x0b, 1	; 11
     3e2:	8a b1       	in	r24, 0x0a	; 10
     3e4:	88 61       	ori	r24, 0x18	; 24
     3e6:	8a b9       	out	0x0a, r24	; 10
     3e8:	e5 e9       	ldi	r30, 0x95	; 149
     3ea:	f0 e0       	ldi	r31, 0x00	; 0
     3ec:	80 81       	ld	r24, Z
     3ee:	86 60       	ori	r24, 0x06	; 6
     3f0:	80 83       	st	Z, r24
     3f2:	08 95       	ret

000003f4 <tranmitUart0String>:
}

int tranmitUart0String(char ch, FILE *fp)
{
	while (!(UCSR0A & (1 << UDRE0)));
     3f4:	5d 9b       	sbis	0x0b, 5	; 11
     3f6:	fe cf       	rjmp	.-4      	; 0x3f4 <tranmitUart0String>

	UDR0 = ch;
     3f8:	8c b9       	out	0x0c, r24	; 12

	return 0;
}
     3fa:	80 e0       	ldi	r24, 0x00	; 0
     3fc:	90 e0       	ldi	r25, 0x00	; 0
     3fe:	08 95       	ret

00000400 <__floatunsisf>:
     400:	e8 94       	clt
     402:	09 c0       	rjmp	.+18     	; 0x416 <__floatsisf+0x12>

00000404 <__floatsisf>:
     404:	97 fb       	bst	r25, 7
     406:	3e f4       	brtc	.+14     	; 0x416 <__floatsisf+0x12>
     408:	90 95       	com	r25
     40a:	80 95       	com	r24
     40c:	70 95       	com	r23
     40e:	61 95       	neg	r22
     410:	7f 4f       	sbci	r23, 0xFF	; 255
     412:	8f 4f       	sbci	r24, 0xFF	; 255
     414:	9f 4f       	sbci	r25, 0xFF	; 255
     416:	99 23       	and	r25, r25
     418:	a9 f0       	breq	.+42     	; 0x444 <__floatsisf+0x40>
     41a:	f9 2f       	mov	r31, r25
     41c:	96 e9       	ldi	r25, 0x96	; 150
     41e:	bb 27       	eor	r27, r27
     420:	93 95       	inc	r25
     422:	f6 95       	lsr	r31
     424:	87 95       	ror	r24
     426:	77 95       	ror	r23
     428:	67 95       	ror	r22
     42a:	b7 95       	ror	r27
     42c:	f1 11       	cpse	r31, r1
     42e:	f8 cf       	rjmp	.-16     	; 0x420 <__floatsisf+0x1c>
     430:	fa f4       	brpl	.+62     	; 0x470 <__floatsisf+0x6c>
     432:	bb 0f       	add	r27, r27
     434:	11 f4       	brne	.+4      	; 0x43a <__floatsisf+0x36>
     436:	60 ff       	sbrs	r22, 0
     438:	1b c0       	rjmp	.+54     	; 0x470 <__floatsisf+0x6c>
     43a:	6f 5f       	subi	r22, 0xFF	; 255
     43c:	7f 4f       	sbci	r23, 0xFF	; 255
     43e:	8f 4f       	sbci	r24, 0xFF	; 255
     440:	9f 4f       	sbci	r25, 0xFF	; 255
     442:	16 c0       	rjmp	.+44     	; 0x470 <__floatsisf+0x6c>
     444:	88 23       	and	r24, r24
     446:	11 f0       	breq	.+4      	; 0x44c <__floatsisf+0x48>
     448:	96 e9       	ldi	r25, 0x96	; 150
     44a:	11 c0       	rjmp	.+34     	; 0x46e <__floatsisf+0x6a>
     44c:	77 23       	and	r23, r23
     44e:	21 f0       	breq	.+8      	; 0x458 <__floatsisf+0x54>
     450:	9e e8       	ldi	r25, 0x8E	; 142
     452:	87 2f       	mov	r24, r23
     454:	76 2f       	mov	r23, r22
     456:	05 c0       	rjmp	.+10     	; 0x462 <__floatsisf+0x5e>
     458:	66 23       	and	r22, r22
     45a:	71 f0       	breq	.+28     	; 0x478 <__floatsisf+0x74>
     45c:	96 e8       	ldi	r25, 0x86	; 134
     45e:	86 2f       	mov	r24, r22
     460:	70 e0       	ldi	r23, 0x00	; 0
     462:	60 e0       	ldi	r22, 0x00	; 0
     464:	2a f0       	brmi	.+10     	; 0x470 <__floatsisf+0x6c>
     466:	9a 95       	dec	r25
     468:	66 0f       	add	r22, r22
     46a:	77 1f       	adc	r23, r23
     46c:	88 1f       	adc	r24, r24
     46e:	da f7       	brpl	.-10     	; 0x466 <__floatsisf+0x62>
     470:	88 0f       	add	r24, r24
     472:	96 95       	lsr	r25
     474:	87 95       	ror	r24
     476:	97 f9       	bld	r25, 7
     478:	08 95       	ret

0000047a <vfprintf>:
     47a:	2f 92       	push	r2
     47c:	3f 92       	push	r3
     47e:	4f 92       	push	r4
     480:	5f 92       	push	r5
     482:	6f 92       	push	r6
     484:	7f 92       	push	r7
     486:	8f 92       	push	r8
     488:	9f 92       	push	r9
     48a:	af 92       	push	r10
     48c:	bf 92       	push	r11
     48e:	cf 92       	push	r12
     490:	df 92       	push	r13
     492:	ef 92       	push	r14
     494:	ff 92       	push	r15
     496:	0f 93       	push	r16
     498:	1f 93       	push	r17
     49a:	cf 93       	push	r28
     49c:	df 93       	push	r29
     49e:	cd b7       	in	r28, 0x3d	; 61
     4a0:	de b7       	in	r29, 0x3e	; 62
     4a2:	60 97       	sbiw	r28, 0x10	; 16
     4a4:	0f b6       	in	r0, 0x3f	; 63
     4a6:	f8 94       	cli
     4a8:	de bf       	out	0x3e, r29	; 62
     4aa:	0f be       	out	0x3f, r0	; 63
     4ac:	cd bf       	out	0x3d, r28	; 61
     4ae:	7c 01       	movw	r14, r24
     4b0:	1b 01       	movw	r2, r22
     4b2:	6a 01       	movw	r12, r20
     4b4:	fc 01       	movw	r30, r24
     4b6:	17 82       	std	Z+7, r1	; 0x07
     4b8:	16 82       	std	Z+6, r1	; 0x06
     4ba:	83 81       	ldd	r24, Z+3	; 0x03
     4bc:	81 ff       	sbrs	r24, 1
     4be:	2a c3       	rjmp	.+1620   	; 0xb14 <vfprintf+0x69a>
     4c0:	9e 01       	movw	r18, r28
     4c2:	2f 5f       	subi	r18, 0xFF	; 255
     4c4:	3f 4f       	sbci	r19, 0xFF	; 255
     4c6:	39 01       	movw	r6, r18
     4c8:	f7 01       	movw	r30, r14
     4ca:	93 81       	ldd	r25, Z+3	; 0x03
     4cc:	f1 01       	movw	r30, r2
     4ce:	93 fd       	sbrc	r25, 3
     4d0:	85 91       	lpm	r24, Z+
     4d2:	93 ff       	sbrs	r25, 3
     4d4:	81 91       	ld	r24, Z+
     4d6:	1f 01       	movw	r2, r30
     4d8:	88 23       	and	r24, r24
     4da:	09 f4       	brne	.+2      	; 0x4de <vfprintf+0x64>
     4dc:	17 c3       	rjmp	.+1582   	; 0xb0c <vfprintf+0x692>
     4de:	85 32       	cpi	r24, 0x25	; 37
     4e0:	39 f4       	brne	.+14     	; 0x4f0 <vfprintf+0x76>
     4e2:	93 fd       	sbrc	r25, 3
     4e4:	85 91       	lpm	r24, Z+
     4e6:	93 ff       	sbrs	r25, 3
     4e8:	81 91       	ld	r24, Z+
     4ea:	1f 01       	movw	r2, r30
     4ec:	85 32       	cpi	r24, 0x25	; 37
     4ee:	31 f4       	brne	.+12     	; 0x4fc <vfprintf+0x82>
     4f0:	b7 01       	movw	r22, r14
     4f2:	90 e0       	ldi	r25, 0x00	; 0
     4f4:	83 d4       	rcall	.+2310   	; 0xdfc <fputc>
     4f6:	56 01       	movw	r10, r12
     4f8:	65 01       	movw	r12, r10
     4fa:	e6 cf       	rjmp	.-52     	; 0x4c8 <vfprintf+0x4e>
     4fc:	10 e0       	ldi	r17, 0x00	; 0
     4fe:	51 2c       	mov	r5, r1
     500:	91 2c       	mov	r9, r1
     502:	ff e1       	ldi	r31, 0x1F	; 31
     504:	f9 15       	cp	r31, r9
     506:	d8 f0       	brcs	.+54     	; 0x53e <vfprintf+0xc4>
     508:	8b 32       	cpi	r24, 0x2B	; 43
     50a:	79 f0       	breq	.+30     	; 0x52a <vfprintf+0xb0>
     50c:	38 f4       	brcc	.+14     	; 0x51c <vfprintf+0xa2>
     50e:	80 32       	cpi	r24, 0x20	; 32
     510:	79 f0       	breq	.+30     	; 0x530 <vfprintf+0xb6>
     512:	83 32       	cpi	r24, 0x23	; 35
     514:	a1 f4       	brne	.+40     	; 0x53e <vfprintf+0xc4>
     516:	f9 2d       	mov	r31, r9
     518:	f0 61       	ori	r31, 0x10	; 16
     51a:	2e c0       	rjmp	.+92     	; 0x578 <vfprintf+0xfe>
     51c:	8d 32       	cpi	r24, 0x2D	; 45
     51e:	61 f0       	breq	.+24     	; 0x538 <vfprintf+0xbe>
     520:	80 33       	cpi	r24, 0x30	; 48
     522:	69 f4       	brne	.+26     	; 0x53e <vfprintf+0xc4>
     524:	29 2d       	mov	r18, r9
     526:	21 60       	ori	r18, 0x01	; 1
     528:	2d c0       	rjmp	.+90     	; 0x584 <vfprintf+0x10a>
     52a:	39 2d       	mov	r19, r9
     52c:	32 60       	ori	r19, 0x02	; 2
     52e:	93 2e       	mov	r9, r19
     530:	89 2d       	mov	r24, r9
     532:	84 60       	ori	r24, 0x04	; 4
     534:	98 2e       	mov	r9, r24
     536:	2a c0       	rjmp	.+84     	; 0x58c <vfprintf+0x112>
     538:	e9 2d       	mov	r30, r9
     53a:	e8 60       	ori	r30, 0x08	; 8
     53c:	15 c0       	rjmp	.+42     	; 0x568 <vfprintf+0xee>
     53e:	97 fc       	sbrc	r9, 7
     540:	2d c0       	rjmp	.+90     	; 0x59c <vfprintf+0x122>
     542:	20 ed       	ldi	r18, 0xD0	; 208
     544:	28 0f       	add	r18, r24
     546:	2a 30       	cpi	r18, 0x0A	; 10
     548:	88 f4       	brcc	.+34     	; 0x56c <vfprintf+0xf2>
     54a:	96 fe       	sbrs	r9, 6
     54c:	06 c0       	rjmp	.+12     	; 0x55a <vfprintf+0xe0>
     54e:	3a e0       	ldi	r19, 0x0A	; 10
     550:	13 9f       	mul	r17, r19
     552:	20 0d       	add	r18, r0
     554:	11 24       	eor	r1, r1
     556:	12 2f       	mov	r17, r18
     558:	19 c0       	rjmp	.+50     	; 0x58c <vfprintf+0x112>
     55a:	8a e0       	ldi	r24, 0x0A	; 10
     55c:	58 9e       	mul	r5, r24
     55e:	20 0d       	add	r18, r0
     560:	11 24       	eor	r1, r1
     562:	52 2e       	mov	r5, r18
     564:	e9 2d       	mov	r30, r9
     566:	e0 62       	ori	r30, 0x20	; 32
     568:	9e 2e       	mov	r9, r30
     56a:	10 c0       	rjmp	.+32     	; 0x58c <vfprintf+0x112>
     56c:	8e 32       	cpi	r24, 0x2E	; 46
     56e:	31 f4       	brne	.+12     	; 0x57c <vfprintf+0x102>
     570:	96 fc       	sbrc	r9, 6
     572:	cc c2       	rjmp	.+1432   	; 0xb0c <vfprintf+0x692>
     574:	f9 2d       	mov	r31, r9
     576:	f0 64       	ori	r31, 0x40	; 64
     578:	9f 2e       	mov	r9, r31
     57a:	08 c0       	rjmp	.+16     	; 0x58c <vfprintf+0x112>
     57c:	8c 36       	cpi	r24, 0x6C	; 108
     57e:	21 f4       	brne	.+8      	; 0x588 <vfprintf+0x10e>
     580:	29 2d       	mov	r18, r9
     582:	20 68       	ori	r18, 0x80	; 128
     584:	92 2e       	mov	r9, r18
     586:	02 c0       	rjmp	.+4      	; 0x58c <vfprintf+0x112>
     588:	88 36       	cpi	r24, 0x68	; 104
     58a:	41 f4       	brne	.+16     	; 0x59c <vfprintf+0x122>
     58c:	f1 01       	movw	r30, r2
     58e:	93 fd       	sbrc	r25, 3
     590:	85 91       	lpm	r24, Z+
     592:	93 ff       	sbrs	r25, 3
     594:	81 91       	ld	r24, Z+
     596:	1f 01       	movw	r2, r30
     598:	81 11       	cpse	r24, r1
     59a:	b3 cf       	rjmp	.-154    	; 0x502 <vfprintf+0x88>
     59c:	9b eb       	ldi	r25, 0xBB	; 187
     59e:	98 0f       	add	r25, r24
     5a0:	93 30       	cpi	r25, 0x03	; 3
     5a2:	20 f4       	brcc	.+8      	; 0x5ac <vfprintf+0x132>
     5a4:	99 2d       	mov	r25, r9
     5a6:	90 61       	ori	r25, 0x10	; 16
     5a8:	80 5e       	subi	r24, 0xE0	; 224
     5aa:	07 c0       	rjmp	.+14     	; 0x5ba <vfprintf+0x140>
     5ac:	9b e9       	ldi	r25, 0x9B	; 155
     5ae:	98 0f       	add	r25, r24
     5b0:	93 30       	cpi	r25, 0x03	; 3
     5b2:	08 f0       	brcs	.+2      	; 0x5b6 <vfprintf+0x13c>
     5b4:	59 c1       	rjmp	.+690    	; 0x868 <vfprintf+0x3ee>
     5b6:	99 2d       	mov	r25, r9
     5b8:	9f 7e       	andi	r25, 0xEF	; 239
     5ba:	96 ff       	sbrs	r25, 6
     5bc:	16 e0       	ldi	r17, 0x06	; 6
     5be:	9f 73       	andi	r25, 0x3F	; 63
     5c0:	99 2e       	mov	r9, r25
     5c2:	85 36       	cpi	r24, 0x65	; 101
     5c4:	19 f4       	brne	.+6      	; 0x5cc <vfprintf+0x152>
     5c6:	90 64       	ori	r25, 0x40	; 64
     5c8:	99 2e       	mov	r9, r25
     5ca:	08 c0       	rjmp	.+16     	; 0x5dc <vfprintf+0x162>
     5cc:	86 36       	cpi	r24, 0x66	; 102
     5ce:	21 f4       	brne	.+8      	; 0x5d8 <vfprintf+0x15e>
     5d0:	39 2f       	mov	r19, r25
     5d2:	30 68       	ori	r19, 0x80	; 128
     5d4:	93 2e       	mov	r9, r19
     5d6:	02 c0       	rjmp	.+4      	; 0x5dc <vfprintf+0x162>
     5d8:	11 11       	cpse	r17, r1
     5da:	11 50       	subi	r17, 0x01	; 1
     5dc:	97 fe       	sbrs	r9, 7
     5de:	07 c0       	rjmp	.+14     	; 0x5ee <vfprintf+0x174>
     5e0:	1c 33       	cpi	r17, 0x3C	; 60
     5e2:	50 f4       	brcc	.+20     	; 0x5f8 <vfprintf+0x17e>
     5e4:	44 24       	eor	r4, r4
     5e6:	43 94       	inc	r4
     5e8:	41 0e       	add	r4, r17
     5ea:	27 e0       	ldi	r18, 0x07	; 7
     5ec:	0b c0       	rjmp	.+22     	; 0x604 <vfprintf+0x18a>
     5ee:	18 30       	cpi	r17, 0x08	; 8
     5f0:	38 f0       	brcs	.+14     	; 0x600 <vfprintf+0x186>
     5f2:	27 e0       	ldi	r18, 0x07	; 7
     5f4:	17 e0       	ldi	r17, 0x07	; 7
     5f6:	05 c0       	rjmp	.+10     	; 0x602 <vfprintf+0x188>
     5f8:	27 e0       	ldi	r18, 0x07	; 7
     5fa:	9c e3       	ldi	r25, 0x3C	; 60
     5fc:	49 2e       	mov	r4, r25
     5fe:	02 c0       	rjmp	.+4      	; 0x604 <vfprintf+0x18a>
     600:	21 2f       	mov	r18, r17
     602:	41 2c       	mov	r4, r1
     604:	56 01       	movw	r10, r12
     606:	84 e0       	ldi	r24, 0x04	; 4
     608:	a8 0e       	add	r10, r24
     60a:	b1 1c       	adc	r11, r1
     60c:	f6 01       	movw	r30, r12
     60e:	60 81       	ld	r22, Z
     610:	71 81       	ldd	r23, Z+1	; 0x01
     612:	82 81       	ldd	r24, Z+2	; 0x02
     614:	93 81       	ldd	r25, Z+3	; 0x03
     616:	04 2d       	mov	r16, r4
     618:	a3 01       	movw	r20, r6
     61a:	b8 d2       	rcall	.+1392   	; 0xb8c <__ftoa_engine>
     61c:	6c 01       	movw	r12, r24
     61e:	f9 81       	ldd	r31, Y+1	; 0x01
     620:	fc 87       	std	Y+12, r31	; 0x0c
     622:	f0 ff       	sbrs	r31, 0
     624:	02 c0       	rjmp	.+4      	; 0x62a <vfprintf+0x1b0>
     626:	f3 ff       	sbrs	r31, 3
     628:	06 c0       	rjmp	.+12     	; 0x636 <vfprintf+0x1bc>
     62a:	91 fc       	sbrc	r9, 1
     62c:	06 c0       	rjmp	.+12     	; 0x63a <vfprintf+0x1c0>
     62e:	92 fe       	sbrs	r9, 2
     630:	06 c0       	rjmp	.+12     	; 0x63e <vfprintf+0x1c4>
     632:	00 e2       	ldi	r16, 0x20	; 32
     634:	05 c0       	rjmp	.+10     	; 0x640 <vfprintf+0x1c6>
     636:	0d e2       	ldi	r16, 0x2D	; 45
     638:	03 c0       	rjmp	.+6      	; 0x640 <vfprintf+0x1c6>
     63a:	0b e2       	ldi	r16, 0x2B	; 43
     63c:	01 c0       	rjmp	.+2      	; 0x640 <vfprintf+0x1c6>
     63e:	00 e0       	ldi	r16, 0x00	; 0
     640:	8c 85       	ldd	r24, Y+12	; 0x0c
     642:	8c 70       	andi	r24, 0x0C	; 12
     644:	19 f0       	breq	.+6      	; 0x64c <vfprintf+0x1d2>
     646:	01 11       	cpse	r16, r1
     648:	43 c2       	rjmp	.+1158   	; 0xad0 <vfprintf+0x656>
     64a:	80 c2       	rjmp	.+1280   	; 0xb4c <vfprintf+0x6d2>
     64c:	97 fe       	sbrs	r9, 7
     64e:	10 c0       	rjmp	.+32     	; 0x670 <vfprintf+0x1f6>
     650:	4c 0c       	add	r4, r12
     652:	fc 85       	ldd	r31, Y+12	; 0x0c
     654:	f4 ff       	sbrs	r31, 4
     656:	04 c0       	rjmp	.+8      	; 0x660 <vfprintf+0x1e6>
     658:	8a 81       	ldd	r24, Y+2	; 0x02
     65a:	81 33       	cpi	r24, 0x31	; 49
     65c:	09 f4       	brne	.+2      	; 0x660 <vfprintf+0x1e6>
     65e:	4a 94       	dec	r4
     660:	14 14       	cp	r1, r4
     662:	74 f5       	brge	.+92     	; 0x6c0 <vfprintf+0x246>
     664:	28 e0       	ldi	r18, 0x08	; 8
     666:	24 15       	cp	r18, r4
     668:	78 f5       	brcc	.+94     	; 0x6c8 <vfprintf+0x24e>
     66a:	88 e0       	ldi	r24, 0x08	; 8
     66c:	48 2e       	mov	r4, r24
     66e:	2c c0       	rjmp	.+88     	; 0x6c8 <vfprintf+0x24e>
     670:	96 fc       	sbrc	r9, 6
     672:	2a c0       	rjmp	.+84     	; 0x6c8 <vfprintf+0x24e>
     674:	81 2f       	mov	r24, r17
     676:	90 e0       	ldi	r25, 0x00	; 0
     678:	8c 15       	cp	r24, r12
     67a:	9d 05       	cpc	r25, r13
     67c:	9c f0       	brlt	.+38     	; 0x6a4 <vfprintf+0x22a>
     67e:	3c ef       	ldi	r19, 0xFC	; 252
     680:	c3 16       	cp	r12, r19
     682:	3f ef       	ldi	r19, 0xFF	; 255
     684:	d3 06       	cpc	r13, r19
     686:	74 f0       	brlt	.+28     	; 0x6a4 <vfprintf+0x22a>
     688:	89 2d       	mov	r24, r9
     68a:	80 68       	ori	r24, 0x80	; 128
     68c:	98 2e       	mov	r9, r24
     68e:	0a c0       	rjmp	.+20     	; 0x6a4 <vfprintf+0x22a>
     690:	e2 e0       	ldi	r30, 0x02	; 2
     692:	f0 e0       	ldi	r31, 0x00	; 0
     694:	ec 0f       	add	r30, r28
     696:	fd 1f       	adc	r31, r29
     698:	e1 0f       	add	r30, r17
     69a:	f1 1d       	adc	r31, r1
     69c:	80 81       	ld	r24, Z
     69e:	80 33       	cpi	r24, 0x30	; 48
     6a0:	19 f4       	brne	.+6      	; 0x6a8 <vfprintf+0x22e>
     6a2:	11 50       	subi	r17, 0x01	; 1
     6a4:	11 11       	cpse	r17, r1
     6a6:	f4 cf       	rjmp	.-24     	; 0x690 <vfprintf+0x216>
     6a8:	97 fe       	sbrs	r9, 7
     6aa:	0e c0       	rjmp	.+28     	; 0x6c8 <vfprintf+0x24e>
     6ac:	44 24       	eor	r4, r4
     6ae:	43 94       	inc	r4
     6b0:	41 0e       	add	r4, r17
     6b2:	81 2f       	mov	r24, r17
     6b4:	90 e0       	ldi	r25, 0x00	; 0
     6b6:	c8 16       	cp	r12, r24
     6b8:	d9 06       	cpc	r13, r25
     6ba:	2c f4       	brge	.+10     	; 0x6c6 <vfprintf+0x24c>
     6bc:	1c 19       	sub	r17, r12
     6be:	04 c0       	rjmp	.+8      	; 0x6c8 <vfprintf+0x24e>
     6c0:	44 24       	eor	r4, r4
     6c2:	43 94       	inc	r4
     6c4:	01 c0       	rjmp	.+2      	; 0x6c8 <vfprintf+0x24e>
     6c6:	10 e0       	ldi	r17, 0x00	; 0
     6c8:	97 fe       	sbrs	r9, 7
     6ca:	06 c0       	rjmp	.+12     	; 0x6d8 <vfprintf+0x25e>
     6cc:	1c 14       	cp	r1, r12
     6ce:	1d 04       	cpc	r1, r13
     6d0:	34 f4       	brge	.+12     	; 0x6de <vfprintf+0x264>
     6d2:	c6 01       	movw	r24, r12
     6d4:	01 96       	adiw	r24, 0x01	; 1
     6d6:	05 c0       	rjmp	.+10     	; 0x6e2 <vfprintf+0x268>
     6d8:	85 e0       	ldi	r24, 0x05	; 5
     6da:	90 e0       	ldi	r25, 0x00	; 0
     6dc:	02 c0       	rjmp	.+4      	; 0x6e2 <vfprintf+0x268>
     6de:	81 e0       	ldi	r24, 0x01	; 1
     6e0:	90 e0       	ldi	r25, 0x00	; 0
     6e2:	01 11       	cpse	r16, r1
     6e4:	01 96       	adiw	r24, 0x01	; 1
     6e6:	11 23       	and	r17, r17
     6e8:	31 f0       	breq	.+12     	; 0x6f6 <vfprintf+0x27c>
     6ea:	21 2f       	mov	r18, r17
     6ec:	30 e0       	ldi	r19, 0x00	; 0
     6ee:	2f 5f       	subi	r18, 0xFF	; 255
     6f0:	3f 4f       	sbci	r19, 0xFF	; 255
     6f2:	82 0f       	add	r24, r18
     6f4:	93 1f       	adc	r25, r19
     6f6:	25 2d       	mov	r18, r5
     6f8:	30 e0       	ldi	r19, 0x00	; 0
     6fa:	82 17       	cp	r24, r18
     6fc:	93 07       	cpc	r25, r19
     6fe:	14 f4       	brge	.+4      	; 0x704 <vfprintf+0x28a>
     700:	58 1a       	sub	r5, r24
     702:	01 c0       	rjmp	.+2      	; 0x706 <vfprintf+0x28c>
     704:	51 2c       	mov	r5, r1
     706:	89 2d       	mov	r24, r9
     708:	89 70       	andi	r24, 0x09	; 9
     70a:	41 f4       	brne	.+16     	; 0x71c <vfprintf+0x2a2>
     70c:	55 20       	and	r5, r5
     70e:	31 f0       	breq	.+12     	; 0x71c <vfprintf+0x2a2>
     710:	b7 01       	movw	r22, r14
     712:	80 e2       	ldi	r24, 0x20	; 32
     714:	90 e0       	ldi	r25, 0x00	; 0
     716:	72 d3       	rcall	.+1764   	; 0xdfc <fputc>
     718:	5a 94       	dec	r5
     71a:	f8 cf       	rjmp	.-16     	; 0x70c <vfprintf+0x292>
     71c:	00 23       	and	r16, r16
     71e:	21 f0       	breq	.+8      	; 0x728 <vfprintf+0x2ae>
     720:	b7 01       	movw	r22, r14
     722:	80 2f       	mov	r24, r16
     724:	90 e0       	ldi	r25, 0x00	; 0
     726:	6a d3       	rcall	.+1748   	; 0xdfc <fputc>
     728:	93 fc       	sbrc	r9, 3
     72a:	08 c0       	rjmp	.+16     	; 0x73c <vfprintf+0x2c2>
     72c:	55 20       	and	r5, r5
     72e:	31 f0       	breq	.+12     	; 0x73c <vfprintf+0x2c2>
     730:	b7 01       	movw	r22, r14
     732:	80 e3       	ldi	r24, 0x30	; 48
     734:	90 e0       	ldi	r25, 0x00	; 0
     736:	62 d3       	rcall	.+1732   	; 0xdfc <fputc>
     738:	5a 94       	dec	r5
     73a:	f8 cf       	rjmp	.-16     	; 0x72c <vfprintf+0x2b2>
     73c:	97 fe       	sbrs	r9, 7
     73e:	4a c0       	rjmp	.+148    	; 0x7d4 <vfprintf+0x35a>
     740:	46 01       	movw	r8, r12
     742:	d7 fe       	sbrs	r13, 7
     744:	02 c0       	rjmp	.+4      	; 0x74a <vfprintf+0x2d0>
     746:	81 2c       	mov	r8, r1
     748:	91 2c       	mov	r9, r1
     74a:	c6 01       	movw	r24, r12
     74c:	88 19       	sub	r24, r8
     74e:	99 09       	sbc	r25, r9
     750:	f3 01       	movw	r30, r6
     752:	e8 0f       	add	r30, r24
     754:	f9 1f       	adc	r31, r25
     756:	fe 87       	std	Y+14, r31	; 0x0e
     758:	ed 87       	std	Y+13, r30	; 0x0d
     75a:	96 01       	movw	r18, r12
     75c:	24 19       	sub	r18, r4
     75e:	31 09       	sbc	r19, r1
     760:	38 8b       	std	Y+16, r19	; 0x10
     762:	2f 87       	std	Y+15, r18	; 0x0f
     764:	01 2f       	mov	r16, r17
     766:	10 e0       	ldi	r17, 0x00	; 0
     768:	11 95       	neg	r17
     76a:	01 95       	neg	r16
     76c:	11 09       	sbc	r17, r1
     76e:	3f ef       	ldi	r19, 0xFF	; 255
     770:	83 16       	cp	r8, r19
     772:	93 06       	cpc	r9, r19
     774:	21 f4       	brne	.+8      	; 0x77e <vfprintf+0x304>
     776:	b7 01       	movw	r22, r14
     778:	8e e2       	ldi	r24, 0x2E	; 46
     77a:	90 e0       	ldi	r25, 0x00	; 0
     77c:	3f d3       	rcall	.+1662   	; 0xdfc <fputc>
     77e:	c8 14       	cp	r12, r8
     780:	d9 04       	cpc	r13, r9
     782:	4c f0       	brlt	.+18     	; 0x796 <vfprintf+0x31c>
     784:	8f 85       	ldd	r24, Y+15	; 0x0f
     786:	98 89       	ldd	r25, Y+16	; 0x10
     788:	88 15       	cp	r24, r8
     78a:	99 05       	cpc	r25, r9
     78c:	24 f4       	brge	.+8      	; 0x796 <vfprintf+0x31c>
     78e:	ed 85       	ldd	r30, Y+13	; 0x0d
     790:	fe 85       	ldd	r31, Y+14	; 0x0e
     792:	81 81       	ldd	r24, Z+1	; 0x01
     794:	01 c0       	rjmp	.+2      	; 0x798 <vfprintf+0x31e>
     796:	80 e3       	ldi	r24, 0x30	; 48
     798:	f1 e0       	ldi	r31, 0x01	; 1
     79a:	8f 1a       	sub	r8, r31
     79c:	91 08       	sbc	r9, r1
     79e:	2d 85       	ldd	r18, Y+13	; 0x0d
     7a0:	3e 85       	ldd	r19, Y+14	; 0x0e
     7a2:	2f 5f       	subi	r18, 0xFF	; 255
     7a4:	3f 4f       	sbci	r19, 0xFF	; 255
     7a6:	3e 87       	std	Y+14, r19	; 0x0e
     7a8:	2d 87       	std	Y+13, r18	; 0x0d
     7aa:	80 16       	cp	r8, r16
     7ac:	91 06       	cpc	r9, r17
     7ae:	24 f0       	brlt	.+8      	; 0x7b8 <vfprintf+0x33e>
     7b0:	b7 01       	movw	r22, r14
     7b2:	90 e0       	ldi	r25, 0x00	; 0
     7b4:	23 d3       	rcall	.+1606   	; 0xdfc <fputc>
     7b6:	db cf       	rjmp	.-74     	; 0x76e <vfprintf+0x2f4>
     7b8:	c8 14       	cp	r12, r8
     7ba:	d9 04       	cpc	r13, r9
     7bc:	41 f4       	brne	.+16     	; 0x7ce <vfprintf+0x354>
     7be:	9a 81       	ldd	r25, Y+2	; 0x02
     7c0:	96 33       	cpi	r25, 0x36	; 54
     7c2:	20 f4       	brcc	.+8      	; 0x7cc <vfprintf+0x352>
     7c4:	95 33       	cpi	r25, 0x35	; 53
     7c6:	19 f4       	brne	.+6      	; 0x7ce <vfprintf+0x354>
     7c8:	3c 85       	ldd	r19, Y+12	; 0x0c
     7ca:	34 ff       	sbrs	r19, 4
     7cc:	81 e3       	ldi	r24, 0x31	; 49
     7ce:	b7 01       	movw	r22, r14
     7d0:	90 e0       	ldi	r25, 0x00	; 0
     7d2:	48 c0       	rjmp	.+144    	; 0x864 <vfprintf+0x3ea>
     7d4:	8a 81       	ldd	r24, Y+2	; 0x02
     7d6:	81 33       	cpi	r24, 0x31	; 49
     7d8:	19 f0       	breq	.+6      	; 0x7e0 <vfprintf+0x366>
     7da:	9c 85       	ldd	r25, Y+12	; 0x0c
     7dc:	9f 7e       	andi	r25, 0xEF	; 239
     7de:	9c 87       	std	Y+12, r25	; 0x0c
     7e0:	b7 01       	movw	r22, r14
     7e2:	90 e0       	ldi	r25, 0x00	; 0
     7e4:	0b d3       	rcall	.+1558   	; 0xdfc <fputc>
     7e6:	11 11       	cpse	r17, r1
     7e8:	05 c0       	rjmp	.+10     	; 0x7f4 <vfprintf+0x37a>
     7ea:	94 fc       	sbrc	r9, 4
     7ec:	16 c0       	rjmp	.+44     	; 0x81a <vfprintf+0x3a0>
     7ee:	85 e6       	ldi	r24, 0x65	; 101
     7f0:	90 e0       	ldi	r25, 0x00	; 0
     7f2:	15 c0       	rjmp	.+42     	; 0x81e <vfprintf+0x3a4>
     7f4:	b7 01       	movw	r22, r14
     7f6:	8e e2       	ldi	r24, 0x2E	; 46
     7f8:	90 e0       	ldi	r25, 0x00	; 0
     7fa:	00 d3       	rcall	.+1536   	; 0xdfc <fputc>
     7fc:	1e 5f       	subi	r17, 0xFE	; 254
     7fe:	82 e0       	ldi	r24, 0x02	; 2
     800:	01 e0       	ldi	r16, 0x01	; 1
     802:	08 0f       	add	r16, r24
     804:	f3 01       	movw	r30, r6
     806:	e8 0f       	add	r30, r24
     808:	f1 1d       	adc	r31, r1
     80a:	80 81       	ld	r24, Z
     80c:	b7 01       	movw	r22, r14
     80e:	90 e0       	ldi	r25, 0x00	; 0
     810:	f5 d2       	rcall	.+1514   	; 0xdfc <fputc>
     812:	80 2f       	mov	r24, r16
     814:	01 13       	cpse	r16, r17
     816:	f4 cf       	rjmp	.-24     	; 0x800 <vfprintf+0x386>
     818:	e8 cf       	rjmp	.-48     	; 0x7ea <vfprintf+0x370>
     81a:	85 e4       	ldi	r24, 0x45	; 69
     81c:	90 e0       	ldi	r25, 0x00	; 0
     81e:	b7 01       	movw	r22, r14
     820:	ed d2       	rcall	.+1498   	; 0xdfc <fputc>
     822:	d7 fc       	sbrc	r13, 7
     824:	06 c0       	rjmp	.+12     	; 0x832 <vfprintf+0x3b8>
     826:	c1 14       	cp	r12, r1
     828:	d1 04       	cpc	r13, r1
     82a:	41 f4       	brne	.+16     	; 0x83c <vfprintf+0x3c2>
     82c:	ec 85       	ldd	r30, Y+12	; 0x0c
     82e:	e4 ff       	sbrs	r30, 4
     830:	05 c0       	rjmp	.+10     	; 0x83c <vfprintf+0x3c2>
     832:	d1 94       	neg	r13
     834:	c1 94       	neg	r12
     836:	d1 08       	sbc	r13, r1
     838:	8d e2       	ldi	r24, 0x2D	; 45
     83a:	01 c0       	rjmp	.+2      	; 0x83e <vfprintf+0x3c4>
     83c:	8b e2       	ldi	r24, 0x2B	; 43
     83e:	b7 01       	movw	r22, r14
     840:	90 e0       	ldi	r25, 0x00	; 0
     842:	dc d2       	rcall	.+1464   	; 0xdfc <fputc>
     844:	80 e3       	ldi	r24, 0x30	; 48
     846:	2a e0       	ldi	r18, 0x0A	; 10
     848:	c2 16       	cp	r12, r18
     84a:	d1 04       	cpc	r13, r1
     84c:	2c f0       	brlt	.+10     	; 0x858 <vfprintf+0x3de>
     84e:	8f 5f       	subi	r24, 0xFF	; 255
     850:	fa e0       	ldi	r31, 0x0A	; 10
     852:	cf 1a       	sub	r12, r31
     854:	d1 08       	sbc	r13, r1
     856:	f7 cf       	rjmp	.-18     	; 0x846 <vfprintf+0x3cc>
     858:	b7 01       	movw	r22, r14
     85a:	90 e0       	ldi	r25, 0x00	; 0
     85c:	cf d2       	rcall	.+1438   	; 0xdfc <fputc>
     85e:	b7 01       	movw	r22, r14
     860:	c6 01       	movw	r24, r12
     862:	c0 96       	adiw	r24, 0x30	; 48
     864:	cb d2       	rcall	.+1430   	; 0xdfc <fputc>
     866:	49 c1       	rjmp	.+658    	; 0xafa <vfprintf+0x680>
     868:	83 36       	cpi	r24, 0x63	; 99
     86a:	31 f0       	breq	.+12     	; 0x878 <vfprintf+0x3fe>
     86c:	83 37       	cpi	r24, 0x73	; 115
     86e:	79 f0       	breq	.+30     	; 0x88e <vfprintf+0x414>
     870:	83 35       	cpi	r24, 0x53	; 83
     872:	09 f0       	breq	.+2      	; 0x876 <vfprintf+0x3fc>
     874:	52 c0       	rjmp	.+164    	; 0x91a <vfprintf+0x4a0>
     876:	1f c0       	rjmp	.+62     	; 0x8b6 <vfprintf+0x43c>
     878:	56 01       	movw	r10, r12
     87a:	32 e0       	ldi	r19, 0x02	; 2
     87c:	a3 0e       	add	r10, r19
     87e:	b1 1c       	adc	r11, r1
     880:	f6 01       	movw	r30, r12
     882:	80 81       	ld	r24, Z
     884:	89 83       	std	Y+1, r24	; 0x01
     886:	01 e0       	ldi	r16, 0x01	; 1
     888:	10 e0       	ldi	r17, 0x00	; 0
     88a:	63 01       	movw	r12, r6
     88c:	11 c0       	rjmp	.+34     	; 0x8b0 <vfprintf+0x436>
     88e:	56 01       	movw	r10, r12
     890:	f2 e0       	ldi	r31, 0x02	; 2
     892:	af 0e       	add	r10, r31
     894:	b1 1c       	adc	r11, r1
     896:	f6 01       	movw	r30, r12
     898:	c0 80       	ld	r12, Z
     89a:	d1 80       	ldd	r13, Z+1	; 0x01
     89c:	96 fe       	sbrs	r9, 6
     89e:	03 c0       	rjmp	.+6      	; 0x8a6 <vfprintf+0x42c>
     8a0:	61 2f       	mov	r22, r17
     8a2:	70 e0       	ldi	r23, 0x00	; 0
     8a4:	02 c0       	rjmp	.+4      	; 0x8aa <vfprintf+0x430>
     8a6:	6f ef       	ldi	r22, 0xFF	; 255
     8a8:	7f ef       	ldi	r23, 0xFF	; 255
     8aa:	c6 01       	movw	r24, r12
     8ac:	52 d2       	rcall	.+1188   	; 0xd52 <strnlen>
     8ae:	8c 01       	movw	r16, r24
     8b0:	f9 2d       	mov	r31, r9
     8b2:	ff 77       	andi	r31, 0x7F	; 127
     8b4:	13 c0       	rjmp	.+38     	; 0x8dc <vfprintf+0x462>
     8b6:	56 01       	movw	r10, r12
     8b8:	22 e0       	ldi	r18, 0x02	; 2
     8ba:	a2 0e       	add	r10, r18
     8bc:	b1 1c       	adc	r11, r1
     8be:	f6 01       	movw	r30, r12
     8c0:	c0 80       	ld	r12, Z
     8c2:	d1 80       	ldd	r13, Z+1	; 0x01
     8c4:	96 fe       	sbrs	r9, 6
     8c6:	03 c0       	rjmp	.+6      	; 0x8ce <vfprintf+0x454>
     8c8:	61 2f       	mov	r22, r17
     8ca:	70 e0       	ldi	r23, 0x00	; 0
     8cc:	02 c0       	rjmp	.+4      	; 0x8d2 <vfprintf+0x458>
     8ce:	6f ef       	ldi	r22, 0xFF	; 255
     8d0:	7f ef       	ldi	r23, 0xFF	; 255
     8d2:	c6 01       	movw	r24, r12
     8d4:	33 d2       	rcall	.+1126   	; 0xd3c <strnlen_P>
     8d6:	8c 01       	movw	r16, r24
     8d8:	f9 2d       	mov	r31, r9
     8da:	f0 68       	ori	r31, 0x80	; 128
     8dc:	9f 2e       	mov	r9, r31
     8de:	f3 fd       	sbrc	r31, 3
     8e0:	18 c0       	rjmp	.+48     	; 0x912 <vfprintf+0x498>
     8e2:	85 2d       	mov	r24, r5
     8e4:	90 e0       	ldi	r25, 0x00	; 0
     8e6:	08 17       	cp	r16, r24
     8e8:	19 07       	cpc	r17, r25
     8ea:	98 f4       	brcc	.+38     	; 0x912 <vfprintf+0x498>
     8ec:	b7 01       	movw	r22, r14
     8ee:	80 e2       	ldi	r24, 0x20	; 32
     8f0:	90 e0       	ldi	r25, 0x00	; 0
     8f2:	84 d2       	rcall	.+1288   	; 0xdfc <fputc>
     8f4:	5a 94       	dec	r5
     8f6:	f5 cf       	rjmp	.-22     	; 0x8e2 <vfprintf+0x468>
     8f8:	f6 01       	movw	r30, r12
     8fa:	97 fc       	sbrc	r9, 7
     8fc:	85 91       	lpm	r24, Z+
     8fe:	97 fe       	sbrs	r9, 7
     900:	81 91       	ld	r24, Z+
     902:	6f 01       	movw	r12, r30
     904:	b7 01       	movw	r22, r14
     906:	90 e0       	ldi	r25, 0x00	; 0
     908:	79 d2       	rcall	.+1266   	; 0xdfc <fputc>
     90a:	51 10       	cpse	r5, r1
     90c:	5a 94       	dec	r5
     90e:	01 50       	subi	r16, 0x01	; 1
     910:	11 09       	sbc	r17, r1
     912:	01 15       	cp	r16, r1
     914:	11 05       	cpc	r17, r1
     916:	81 f7       	brne	.-32     	; 0x8f8 <vfprintf+0x47e>
     918:	f0 c0       	rjmp	.+480    	; 0xafa <vfprintf+0x680>
     91a:	84 36       	cpi	r24, 0x64	; 100
     91c:	11 f0       	breq	.+4      	; 0x922 <vfprintf+0x4a8>
     91e:	89 36       	cpi	r24, 0x69	; 105
     920:	59 f5       	brne	.+86     	; 0x978 <vfprintf+0x4fe>
     922:	56 01       	movw	r10, r12
     924:	97 fe       	sbrs	r9, 7
     926:	09 c0       	rjmp	.+18     	; 0x93a <vfprintf+0x4c0>
     928:	24 e0       	ldi	r18, 0x04	; 4
     92a:	a2 0e       	add	r10, r18
     92c:	b1 1c       	adc	r11, r1
     92e:	f6 01       	movw	r30, r12
     930:	60 81       	ld	r22, Z
     932:	71 81       	ldd	r23, Z+1	; 0x01
     934:	82 81       	ldd	r24, Z+2	; 0x02
     936:	93 81       	ldd	r25, Z+3	; 0x03
     938:	0a c0       	rjmp	.+20     	; 0x94e <vfprintf+0x4d4>
     93a:	f2 e0       	ldi	r31, 0x02	; 2
     93c:	af 0e       	add	r10, r31
     93e:	b1 1c       	adc	r11, r1
     940:	f6 01       	movw	r30, r12
     942:	60 81       	ld	r22, Z
     944:	71 81       	ldd	r23, Z+1	; 0x01
     946:	07 2e       	mov	r0, r23
     948:	00 0c       	add	r0, r0
     94a:	88 0b       	sbc	r24, r24
     94c:	99 0b       	sbc	r25, r25
     94e:	f9 2d       	mov	r31, r9
     950:	ff 76       	andi	r31, 0x6F	; 111
     952:	9f 2e       	mov	r9, r31
     954:	97 ff       	sbrs	r25, 7
     956:	09 c0       	rjmp	.+18     	; 0x96a <vfprintf+0x4f0>
     958:	90 95       	com	r25
     95a:	80 95       	com	r24
     95c:	70 95       	com	r23
     95e:	61 95       	neg	r22
     960:	7f 4f       	sbci	r23, 0xFF	; 255
     962:	8f 4f       	sbci	r24, 0xFF	; 255
     964:	9f 4f       	sbci	r25, 0xFF	; 255
     966:	f0 68       	ori	r31, 0x80	; 128
     968:	9f 2e       	mov	r9, r31
     96a:	2a e0       	ldi	r18, 0x0A	; 10
     96c:	30 e0       	ldi	r19, 0x00	; 0
     96e:	a3 01       	movw	r20, r6
     970:	94 d2       	rcall	.+1320   	; 0xe9a <__ultoa_invert>
     972:	c8 2e       	mov	r12, r24
     974:	c6 18       	sub	r12, r6
     976:	3e c0       	rjmp	.+124    	; 0x9f4 <vfprintf+0x57a>
     978:	09 2d       	mov	r16, r9
     97a:	85 37       	cpi	r24, 0x75	; 117
     97c:	21 f4       	brne	.+8      	; 0x986 <vfprintf+0x50c>
     97e:	0f 7e       	andi	r16, 0xEF	; 239
     980:	2a e0       	ldi	r18, 0x0A	; 10
     982:	30 e0       	ldi	r19, 0x00	; 0
     984:	1d c0       	rjmp	.+58     	; 0x9c0 <vfprintf+0x546>
     986:	09 7f       	andi	r16, 0xF9	; 249
     988:	8f 36       	cpi	r24, 0x6F	; 111
     98a:	91 f0       	breq	.+36     	; 0x9b0 <vfprintf+0x536>
     98c:	18 f4       	brcc	.+6      	; 0x994 <vfprintf+0x51a>
     98e:	88 35       	cpi	r24, 0x58	; 88
     990:	59 f0       	breq	.+22     	; 0x9a8 <vfprintf+0x52e>
     992:	bc c0       	rjmp	.+376    	; 0xb0c <vfprintf+0x692>
     994:	80 37       	cpi	r24, 0x70	; 112
     996:	19 f0       	breq	.+6      	; 0x99e <vfprintf+0x524>
     998:	88 37       	cpi	r24, 0x78	; 120
     99a:	11 f0       	breq	.+4      	; 0x9a0 <vfprintf+0x526>
     99c:	b7 c0       	rjmp	.+366    	; 0xb0c <vfprintf+0x692>
     99e:	00 61       	ori	r16, 0x10	; 16
     9a0:	04 ff       	sbrs	r16, 4
     9a2:	09 c0       	rjmp	.+18     	; 0x9b6 <vfprintf+0x53c>
     9a4:	04 60       	ori	r16, 0x04	; 4
     9a6:	07 c0       	rjmp	.+14     	; 0x9b6 <vfprintf+0x53c>
     9a8:	94 fe       	sbrs	r9, 4
     9aa:	08 c0       	rjmp	.+16     	; 0x9bc <vfprintf+0x542>
     9ac:	06 60       	ori	r16, 0x06	; 6
     9ae:	06 c0       	rjmp	.+12     	; 0x9bc <vfprintf+0x542>
     9b0:	28 e0       	ldi	r18, 0x08	; 8
     9b2:	30 e0       	ldi	r19, 0x00	; 0
     9b4:	05 c0       	rjmp	.+10     	; 0x9c0 <vfprintf+0x546>
     9b6:	20 e1       	ldi	r18, 0x10	; 16
     9b8:	30 e0       	ldi	r19, 0x00	; 0
     9ba:	02 c0       	rjmp	.+4      	; 0x9c0 <vfprintf+0x546>
     9bc:	20 e1       	ldi	r18, 0x10	; 16
     9be:	32 e0       	ldi	r19, 0x02	; 2
     9c0:	56 01       	movw	r10, r12
     9c2:	07 ff       	sbrs	r16, 7
     9c4:	09 c0       	rjmp	.+18     	; 0x9d8 <vfprintf+0x55e>
     9c6:	84 e0       	ldi	r24, 0x04	; 4
     9c8:	a8 0e       	add	r10, r24
     9ca:	b1 1c       	adc	r11, r1
     9cc:	f6 01       	movw	r30, r12
     9ce:	60 81       	ld	r22, Z
     9d0:	71 81       	ldd	r23, Z+1	; 0x01
     9d2:	82 81       	ldd	r24, Z+2	; 0x02
     9d4:	93 81       	ldd	r25, Z+3	; 0x03
     9d6:	08 c0       	rjmp	.+16     	; 0x9e8 <vfprintf+0x56e>
     9d8:	f2 e0       	ldi	r31, 0x02	; 2
     9da:	af 0e       	add	r10, r31
     9dc:	b1 1c       	adc	r11, r1
     9de:	f6 01       	movw	r30, r12
     9e0:	60 81       	ld	r22, Z
     9e2:	71 81       	ldd	r23, Z+1	; 0x01
     9e4:	80 e0       	ldi	r24, 0x00	; 0
     9e6:	90 e0       	ldi	r25, 0x00	; 0
     9e8:	a3 01       	movw	r20, r6
     9ea:	57 d2       	rcall	.+1198   	; 0xe9a <__ultoa_invert>
     9ec:	c8 2e       	mov	r12, r24
     9ee:	c6 18       	sub	r12, r6
     9f0:	0f 77       	andi	r16, 0x7F	; 127
     9f2:	90 2e       	mov	r9, r16
     9f4:	96 fe       	sbrs	r9, 6
     9f6:	0b c0       	rjmp	.+22     	; 0xa0e <vfprintf+0x594>
     9f8:	09 2d       	mov	r16, r9
     9fa:	0e 7f       	andi	r16, 0xFE	; 254
     9fc:	c1 16       	cp	r12, r17
     9fe:	50 f4       	brcc	.+20     	; 0xa14 <vfprintf+0x59a>
     a00:	94 fe       	sbrs	r9, 4
     a02:	0a c0       	rjmp	.+20     	; 0xa18 <vfprintf+0x59e>
     a04:	92 fc       	sbrc	r9, 2
     a06:	08 c0       	rjmp	.+16     	; 0xa18 <vfprintf+0x59e>
     a08:	09 2d       	mov	r16, r9
     a0a:	0e 7e       	andi	r16, 0xEE	; 238
     a0c:	05 c0       	rjmp	.+10     	; 0xa18 <vfprintf+0x59e>
     a0e:	dc 2c       	mov	r13, r12
     a10:	09 2d       	mov	r16, r9
     a12:	03 c0       	rjmp	.+6      	; 0xa1a <vfprintf+0x5a0>
     a14:	dc 2c       	mov	r13, r12
     a16:	01 c0       	rjmp	.+2      	; 0xa1a <vfprintf+0x5a0>
     a18:	d1 2e       	mov	r13, r17
     a1a:	04 ff       	sbrs	r16, 4
     a1c:	0d c0       	rjmp	.+26     	; 0xa38 <vfprintf+0x5be>
     a1e:	fe 01       	movw	r30, r28
     a20:	ec 0d       	add	r30, r12
     a22:	f1 1d       	adc	r31, r1
     a24:	80 81       	ld	r24, Z
     a26:	80 33       	cpi	r24, 0x30	; 48
     a28:	11 f4       	brne	.+4      	; 0xa2e <vfprintf+0x5b4>
     a2a:	09 7e       	andi	r16, 0xE9	; 233
     a2c:	09 c0       	rjmp	.+18     	; 0xa40 <vfprintf+0x5c6>
     a2e:	02 ff       	sbrs	r16, 2
     a30:	06 c0       	rjmp	.+12     	; 0xa3e <vfprintf+0x5c4>
     a32:	d3 94       	inc	r13
     a34:	d3 94       	inc	r13
     a36:	04 c0       	rjmp	.+8      	; 0xa40 <vfprintf+0x5c6>
     a38:	80 2f       	mov	r24, r16
     a3a:	86 78       	andi	r24, 0x86	; 134
     a3c:	09 f0       	breq	.+2      	; 0xa40 <vfprintf+0x5c6>
     a3e:	d3 94       	inc	r13
     a40:	03 fd       	sbrc	r16, 3
     a42:	10 c0       	rjmp	.+32     	; 0xa64 <vfprintf+0x5ea>
     a44:	00 ff       	sbrs	r16, 0
     a46:	06 c0       	rjmp	.+12     	; 0xa54 <vfprintf+0x5da>
     a48:	1c 2d       	mov	r17, r12
     a4a:	d5 14       	cp	r13, r5
     a4c:	78 f4       	brcc	.+30     	; 0xa6c <vfprintf+0x5f2>
     a4e:	15 0d       	add	r17, r5
     a50:	1d 19       	sub	r17, r13
     a52:	0c c0       	rjmp	.+24     	; 0xa6c <vfprintf+0x5f2>
     a54:	d5 14       	cp	r13, r5
     a56:	50 f4       	brcc	.+20     	; 0xa6c <vfprintf+0x5f2>
     a58:	b7 01       	movw	r22, r14
     a5a:	80 e2       	ldi	r24, 0x20	; 32
     a5c:	90 e0       	ldi	r25, 0x00	; 0
     a5e:	ce d1       	rcall	.+924    	; 0xdfc <fputc>
     a60:	d3 94       	inc	r13
     a62:	f8 cf       	rjmp	.-16     	; 0xa54 <vfprintf+0x5da>
     a64:	d5 14       	cp	r13, r5
     a66:	10 f4       	brcc	.+4      	; 0xa6c <vfprintf+0x5f2>
     a68:	5d 18       	sub	r5, r13
     a6a:	01 c0       	rjmp	.+2      	; 0xa6e <vfprintf+0x5f4>
     a6c:	51 2c       	mov	r5, r1
     a6e:	04 ff       	sbrs	r16, 4
     a70:	0f c0       	rjmp	.+30     	; 0xa90 <vfprintf+0x616>
     a72:	b7 01       	movw	r22, r14
     a74:	80 e3       	ldi	r24, 0x30	; 48
     a76:	90 e0       	ldi	r25, 0x00	; 0
     a78:	c1 d1       	rcall	.+898    	; 0xdfc <fputc>
     a7a:	02 ff       	sbrs	r16, 2
     a7c:	16 c0       	rjmp	.+44     	; 0xaaa <vfprintf+0x630>
     a7e:	01 fd       	sbrc	r16, 1
     a80:	03 c0       	rjmp	.+6      	; 0xa88 <vfprintf+0x60e>
     a82:	88 e7       	ldi	r24, 0x78	; 120
     a84:	90 e0       	ldi	r25, 0x00	; 0
     a86:	02 c0       	rjmp	.+4      	; 0xa8c <vfprintf+0x612>
     a88:	88 e5       	ldi	r24, 0x58	; 88
     a8a:	90 e0       	ldi	r25, 0x00	; 0
     a8c:	b7 01       	movw	r22, r14
     a8e:	0c c0       	rjmp	.+24     	; 0xaa8 <vfprintf+0x62e>
     a90:	80 2f       	mov	r24, r16
     a92:	86 78       	andi	r24, 0x86	; 134
     a94:	51 f0       	breq	.+20     	; 0xaaa <vfprintf+0x630>
     a96:	01 ff       	sbrs	r16, 1
     a98:	02 c0       	rjmp	.+4      	; 0xa9e <vfprintf+0x624>
     a9a:	8b e2       	ldi	r24, 0x2B	; 43
     a9c:	01 c0       	rjmp	.+2      	; 0xaa0 <vfprintf+0x626>
     a9e:	80 e2       	ldi	r24, 0x20	; 32
     aa0:	07 fd       	sbrc	r16, 7
     aa2:	8d e2       	ldi	r24, 0x2D	; 45
     aa4:	b7 01       	movw	r22, r14
     aa6:	90 e0       	ldi	r25, 0x00	; 0
     aa8:	a9 d1       	rcall	.+850    	; 0xdfc <fputc>
     aaa:	c1 16       	cp	r12, r17
     aac:	30 f4       	brcc	.+12     	; 0xaba <vfprintf+0x640>
     aae:	b7 01       	movw	r22, r14
     ab0:	80 e3       	ldi	r24, 0x30	; 48
     ab2:	90 e0       	ldi	r25, 0x00	; 0
     ab4:	a3 d1       	rcall	.+838    	; 0xdfc <fputc>
     ab6:	11 50       	subi	r17, 0x01	; 1
     ab8:	f8 cf       	rjmp	.-16     	; 0xaaa <vfprintf+0x630>
     aba:	ca 94       	dec	r12
     abc:	f3 01       	movw	r30, r6
     abe:	ec 0d       	add	r30, r12
     ac0:	f1 1d       	adc	r31, r1
     ac2:	80 81       	ld	r24, Z
     ac4:	b7 01       	movw	r22, r14
     ac6:	90 e0       	ldi	r25, 0x00	; 0
     ac8:	99 d1       	rcall	.+818    	; 0xdfc <fputc>
     aca:	c1 10       	cpse	r12, r1
     acc:	f6 cf       	rjmp	.-20     	; 0xaba <vfprintf+0x640>
     ace:	15 c0       	rjmp	.+42     	; 0xafa <vfprintf+0x680>
     ad0:	f4 e0       	ldi	r31, 0x04	; 4
     ad2:	f5 15       	cp	r31, r5
     ad4:	50 f5       	brcc	.+84     	; 0xb2a <vfprintf+0x6b0>
     ad6:	84 e0       	ldi	r24, 0x04	; 4
     ad8:	58 1a       	sub	r5, r24
     ada:	93 fe       	sbrs	r9, 3
     adc:	1e c0       	rjmp	.+60     	; 0xb1a <vfprintf+0x6a0>
     ade:	01 11       	cpse	r16, r1
     ae0:	25 c0       	rjmp	.+74     	; 0xb2c <vfprintf+0x6b2>
     ae2:	2c 85       	ldd	r18, Y+12	; 0x0c
     ae4:	23 ff       	sbrs	r18, 3
     ae6:	27 c0       	rjmp	.+78     	; 0xb36 <vfprintf+0x6bc>
     ae8:	0c e8       	ldi	r16, 0x8C	; 140
     aea:	10 e0       	ldi	r17, 0x00	; 0
     aec:	39 2d       	mov	r19, r9
     aee:	30 71       	andi	r19, 0x10	; 16
     af0:	93 2e       	mov	r9, r19
     af2:	f8 01       	movw	r30, r16
     af4:	84 91       	lpm	r24, Z
     af6:	81 11       	cpse	r24, r1
     af8:	21 c0       	rjmp	.+66     	; 0xb3c <vfprintf+0x6c2>
     afa:	55 20       	and	r5, r5
     afc:	09 f4       	brne	.+2      	; 0xb00 <vfprintf+0x686>
     afe:	fc cc       	rjmp	.-1544   	; 0x4f8 <vfprintf+0x7e>
     b00:	b7 01       	movw	r22, r14
     b02:	80 e2       	ldi	r24, 0x20	; 32
     b04:	90 e0       	ldi	r25, 0x00	; 0
     b06:	7a d1       	rcall	.+756    	; 0xdfc <fputc>
     b08:	5a 94       	dec	r5
     b0a:	f7 cf       	rjmp	.-18     	; 0xafa <vfprintf+0x680>
     b0c:	f7 01       	movw	r30, r14
     b0e:	86 81       	ldd	r24, Z+6	; 0x06
     b10:	97 81       	ldd	r25, Z+7	; 0x07
     b12:	23 c0       	rjmp	.+70     	; 0xb5a <vfprintf+0x6e0>
     b14:	8f ef       	ldi	r24, 0xFF	; 255
     b16:	9f ef       	ldi	r25, 0xFF	; 255
     b18:	20 c0       	rjmp	.+64     	; 0xb5a <vfprintf+0x6e0>
     b1a:	b7 01       	movw	r22, r14
     b1c:	80 e2       	ldi	r24, 0x20	; 32
     b1e:	90 e0       	ldi	r25, 0x00	; 0
     b20:	6d d1       	rcall	.+730    	; 0xdfc <fputc>
     b22:	5a 94       	dec	r5
     b24:	51 10       	cpse	r5, r1
     b26:	f9 cf       	rjmp	.-14     	; 0xb1a <vfprintf+0x6a0>
     b28:	da cf       	rjmp	.-76     	; 0xade <vfprintf+0x664>
     b2a:	51 2c       	mov	r5, r1
     b2c:	b7 01       	movw	r22, r14
     b2e:	80 2f       	mov	r24, r16
     b30:	90 e0       	ldi	r25, 0x00	; 0
     b32:	64 d1       	rcall	.+712    	; 0xdfc <fputc>
     b34:	d6 cf       	rjmp	.-84     	; 0xae2 <vfprintf+0x668>
     b36:	00 e9       	ldi	r16, 0x90	; 144
     b38:	10 e0       	ldi	r17, 0x00	; 0
     b3a:	d8 cf       	rjmp	.-80     	; 0xaec <vfprintf+0x672>
     b3c:	91 10       	cpse	r9, r1
     b3e:	80 52       	subi	r24, 0x20	; 32
     b40:	b7 01       	movw	r22, r14
     b42:	90 e0       	ldi	r25, 0x00	; 0
     b44:	5b d1       	rcall	.+694    	; 0xdfc <fputc>
     b46:	0f 5f       	subi	r16, 0xFF	; 255
     b48:	1f 4f       	sbci	r17, 0xFF	; 255
     b4a:	d3 cf       	rjmp	.-90     	; 0xaf2 <vfprintf+0x678>
     b4c:	23 e0       	ldi	r18, 0x03	; 3
     b4e:	25 15       	cp	r18, r5
     b50:	10 f4       	brcc	.+4      	; 0xb56 <vfprintf+0x6dc>
     b52:	83 e0       	ldi	r24, 0x03	; 3
     b54:	c1 cf       	rjmp	.-126    	; 0xad8 <vfprintf+0x65e>
     b56:	51 2c       	mov	r5, r1
     b58:	c4 cf       	rjmp	.-120    	; 0xae2 <vfprintf+0x668>
     b5a:	60 96       	adiw	r28, 0x10	; 16
     b5c:	0f b6       	in	r0, 0x3f	; 63
     b5e:	f8 94       	cli
     b60:	de bf       	out	0x3e, r29	; 62
     b62:	0f be       	out	0x3f, r0	; 63
     b64:	cd bf       	out	0x3d, r28	; 61
     b66:	df 91       	pop	r29
     b68:	cf 91       	pop	r28
     b6a:	1f 91       	pop	r17
     b6c:	0f 91       	pop	r16
     b6e:	ff 90       	pop	r15
     b70:	ef 90       	pop	r14
     b72:	df 90       	pop	r13
     b74:	cf 90       	pop	r12
     b76:	bf 90       	pop	r11
     b78:	af 90       	pop	r10
     b7a:	9f 90       	pop	r9
     b7c:	8f 90       	pop	r8
     b7e:	7f 90       	pop	r7
     b80:	6f 90       	pop	r6
     b82:	5f 90       	pop	r5
     b84:	4f 90       	pop	r4
     b86:	3f 90       	pop	r3
     b88:	2f 90       	pop	r2
     b8a:	08 95       	ret

00000b8c <__ftoa_engine>:
     b8c:	28 30       	cpi	r18, 0x08	; 8
     b8e:	08 f0       	brcs	.+2      	; 0xb92 <__ftoa_engine+0x6>
     b90:	27 e0       	ldi	r18, 0x07	; 7
     b92:	33 27       	eor	r19, r19
     b94:	da 01       	movw	r26, r20
     b96:	99 0f       	add	r25, r25
     b98:	31 1d       	adc	r19, r1
     b9a:	87 fd       	sbrc	r24, 7
     b9c:	91 60       	ori	r25, 0x01	; 1
     b9e:	00 96       	adiw	r24, 0x00	; 0
     ba0:	61 05       	cpc	r22, r1
     ba2:	71 05       	cpc	r23, r1
     ba4:	39 f4       	brne	.+14     	; 0xbb4 <__ftoa_engine+0x28>
     ba6:	32 60       	ori	r19, 0x02	; 2
     ba8:	2e 5f       	subi	r18, 0xFE	; 254
     baa:	3d 93       	st	X+, r19
     bac:	30 e3       	ldi	r19, 0x30	; 48
     bae:	2a 95       	dec	r18
     bb0:	e1 f7       	brne	.-8      	; 0xbaa <__ftoa_engine+0x1e>
     bb2:	08 95       	ret
     bb4:	9f 3f       	cpi	r25, 0xFF	; 255
     bb6:	30 f0       	brcs	.+12     	; 0xbc4 <__ftoa_engine+0x38>
     bb8:	80 38       	cpi	r24, 0x80	; 128
     bba:	71 05       	cpc	r23, r1
     bbc:	61 05       	cpc	r22, r1
     bbe:	09 f0       	breq	.+2      	; 0xbc2 <__ftoa_engine+0x36>
     bc0:	3c 5f       	subi	r19, 0xFC	; 252
     bc2:	3c 5f       	subi	r19, 0xFC	; 252
     bc4:	3d 93       	st	X+, r19
     bc6:	91 30       	cpi	r25, 0x01	; 1
     bc8:	08 f0       	brcs	.+2      	; 0xbcc <__ftoa_engine+0x40>
     bca:	80 68       	ori	r24, 0x80	; 128
     bcc:	91 1d       	adc	r25, r1
     bce:	df 93       	push	r29
     bd0:	cf 93       	push	r28
     bd2:	1f 93       	push	r17
     bd4:	0f 93       	push	r16
     bd6:	ff 92       	push	r15
     bd8:	ef 92       	push	r14
     bda:	19 2f       	mov	r17, r25
     bdc:	98 7f       	andi	r25, 0xF8	; 248
     bde:	96 95       	lsr	r25
     be0:	e9 2f       	mov	r30, r25
     be2:	96 95       	lsr	r25
     be4:	96 95       	lsr	r25
     be6:	e9 0f       	add	r30, r25
     be8:	ff 27       	eor	r31, r31
     bea:	e2 51       	subi	r30, 0x12	; 18
     bec:	ff 4f       	sbci	r31, 0xFF	; 255
     bee:	99 27       	eor	r25, r25
     bf0:	33 27       	eor	r19, r19
     bf2:	ee 24       	eor	r14, r14
     bf4:	ff 24       	eor	r15, r15
     bf6:	a7 01       	movw	r20, r14
     bf8:	e7 01       	movw	r28, r14
     bfa:	05 90       	lpm	r0, Z+
     bfc:	08 94       	sec
     bfe:	07 94       	ror	r0
     c00:	28 f4       	brcc	.+10     	; 0xc0c <__ftoa_engine+0x80>
     c02:	36 0f       	add	r19, r22
     c04:	e7 1e       	adc	r14, r23
     c06:	f8 1e       	adc	r15, r24
     c08:	49 1f       	adc	r20, r25
     c0a:	51 1d       	adc	r21, r1
     c0c:	66 0f       	add	r22, r22
     c0e:	77 1f       	adc	r23, r23
     c10:	88 1f       	adc	r24, r24
     c12:	99 1f       	adc	r25, r25
     c14:	06 94       	lsr	r0
     c16:	a1 f7       	brne	.-24     	; 0xc00 <__ftoa_engine+0x74>
     c18:	05 90       	lpm	r0, Z+
     c1a:	07 94       	ror	r0
     c1c:	28 f4       	brcc	.+10     	; 0xc28 <__ftoa_engine+0x9c>
     c1e:	e7 0e       	add	r14, r23
     c20:	f8 1e       	adc	r15, r24
     c22:	49 1f       	adc	r20, r25
     c24:	56 1f       	adc	r21, r22
     c26:	c1 1d       	adc	r28, r1
     c28:	77 0f       	add	r23, r23
     c2a:	88 1f       	adc	r24, r24
     c2c:	99 1f       	adc	r25, r25
     c2e:	66 1f       	adc	r22, r22
     c30:	06 94       	lsr	r0
     c32:	a1 f7       	brne	.-24     	; 0xc1c <__ftoa_engine+0x90>
     c34:	05 90       	lpm	r0, Z+
     c36:	07 94       	ror	r0
     c38:	28 f4       	brcc	.+10     	; 0xc44 <__ftoa_engine+0xb8>
     c3a:	f8 0e       	add	r15, r24
     c3c:	49 1f       	adc	r20, r25
     c3e:	56 1f       	adc	r21, r22
     c40:	c7 1f       	adc	r28, r23
     c42:	d1 1d       	adc	r29, r1
     c44:	88 0f       	add	r24, r24
     c46:	99 1f       	adc	r25, r25
     c48:	66 1f       	adc	r22, r22
     c4a:	77 1f       	adc	r23, r23
     c4c:	06 94       	lsr	r0
     c4e:	a1 f7       	brne	.-24     	; 0xc38 <__ftoa_engine+0xac>
     c50:	05 90       	lpm	r0, Z+
     c52:	07 94       	ror	r0
     c54:	20 f4       	brcc	.+8      	; 0xc5e <__ftoa_engine+0xd2>
     c56:	49 0f       	add	r20, r25
     c58:	56 1f       	adc	r21, r22
     c5a:	c7 1f       	adc	r28, r23
     c5c:	d8 1f       	adc	r29, r24
     c5e:	99 0f       	add	r25, r25
     c60:	66 1f       	adc	r22, r22
     c62:	77 1f       	adc	r23, r23
     c64:	88 1f       	adc	r24, r24
     c66:	06 94       	lsr	r0
     c68:	a9 f7       	brne	.-22     	; 0xc54 <__ftoa_engine+0xc8>
     c6a:	84 91       	lpm	r24, Z
     c6c:	10 95       	com	r17
     c6e:	17 70       	andi	r17, 0x07	; 7
     c70:	41 f0       	breq	.+16     	; 0xc82 <__ftoa_engine+0xf6>
     c72:	d6 95       	lsr	r29
     c74:	c7 95       	ror	r28
     c76:	57 95       	ror	r21
     c78:	47 95       	ror	r20
     c7a:	f7 94       	ror	r15
     c7c:	e7 94       	ror	r14
     c7e:	1a 95       	dec	r17
     c80:	c1 f7       	brne	.-16     	; 0xc72 <__ftoa_engine+0xe6>
     c82:	e4 e9       	ldi	r30, 0x94	; 148
     c84:	f0 e0       	ldi	r31, 0x00	; 0
     c86:	68 94       	set
     c88:	15 90       	lpm	r1, Z+
     c8a:	15 91       	lpm	r17, Z+
     c8c:	35 91       	lpm	r19, Z+
     c8e:	65 91       	lpm	r22, Z+
     c90:	95 91       	lpm	r25, Z+
     c92:	05 90       	lpm	r0, Z+
     c94:	7f e2       	ldi	r23, 0x2F	; 47
     c96:	73 95       	inc	r23
     c98:	e1 18       	sub	r14, r1
     c9a:	f1 0a       	sbc	r15, r17
     c9c:	43 0b       	sbc	r20, r19
     c9e:	56 0b       	sbc	r21, r22
     ca0:	c9 0b       	sbc	r28, r25
     ca2:	d0 09       	sbc	r29, r0
     ca4:	c0 f7       	brcc	.-16     	; 0xc96 <__ftoa_engine+0x10a>
     ca6:	e1 0c       	add	r14, r1
     ca8:	f1 1e       	adc	r15, r17
     caa:	43 1f       	adc	r20, r19
     cac:	56 1f       	adc	r21, r22
     cae:	c9 1f       	adc	r28, r25
     cb0:	d0 1d       	adc	r29, r0
     cb2:	7e f4       	brtc	.+30     	; 0xcd2 <__ftoa_engine+0x146>
     cb4:	70 33       	cpi	r23, 0x30	; 48
     cb6:	11 f4       	brne	.+4      	; 0xcbc <__ftoa_engine+0x130>
     cb8:	8a 95       	dec	r24
     cba:	e6 cf       	rjmp	.-52     	; 0xc88 <__ftoa_engine+0xfc>
     cbc:	e8 94       	clt
     cbe:	01 50       	subi	r16, 0x01	; 1
     cc0:	30 f0       	brcs	.+12     	; 0xcce <__ftoa_engine+0x142>
     cc2:	08 0f       	add	r16, r24
     cc4:	0a f4       	brpl	.+2      	; 0xcc8 <__ftoa_engine+0x13c>
     cc6:	00 27       	eor	r16, r16
     cc8:	02 17       	cp	r16, r18
     cca:	08 f4       	brcc	.+2      	; 0xcce <__ftoa_engine+0x142>
     ccc:	20 2f       	mov	r18, r16
     cce:	23 95       	inc	r18
     cd0:	02 2f       	mov	r16, r18
     cd2:	7a 33       	cpi	r23, 0x3A	; 58
     cd4:	28 f0       	brcs	.+10     	; 0xce0 <__ftoa_engine+0x154>
     cd6:	79 e3       	ldi	r23, 0x39	; 57
     cd8:	7d 93       	st	X+, r23
     cda:	2a 95       	dec	r18
     cdc:	e9 f7       	brne	.-6      	; 0xcd8 <__ftoa_engine+0x14c>
     cde:	10 c0       	rjmp	.+32     	; 0xd00 <__ftoa_engine+0x174>
     ce0:	7d 93       	st	X+, r23
     ce2:	2a 95       	dec	r18
     ce4:	89 f6       	brne	.-94     	; 0xc88 <__ftoa_engine+0xfc>
     ce6:	06 94       	lsr	r0
     ce8:	97 95       	ror	r25
     cea:	67 95       	ror	r22
     cec:	37 95       	ror	r19
     cee:	17 95       	ror	r17
     cf0:	17 94       	ror	r1
     cf2:	e1 18       	sub	r14, r1
     cf4:	f1 0a       	sbc	r15, r17
     cf6:	43 0b       	sbc	r20, r19
     cf8:	56 0b       	sbc	r21, r22
     cfa:	c9 0b       	sbc	r28, r25
     cfc:	d0 09       	sbc	r29, r0
     cfe:	98 f0       	brcs	.+38     	; 0xd26 <__ftoa_engine+0x19a>
     d00:	23 95       	inc	r18
     d02:	7e 91       	ld	r23, -X
     d04:	73 95       	inc	r23
     d06:	7a 33       	cpi	r23, 0x3A	; 58
     d08:	08 f0       	brcs	.+2      	; 0xd0c <__ftoa_engine+0x180>
     d0a:	70 e3       	ldi	r23, 0x30	; 48
     d0c:	7c 93       	st	X, r23
     d0e:	20 13       	cpse	r18, r16
     d10:	b8 f7       	brcc	.-18     	; 0xd00 <__ftoa_engine+0x174>
     d12:	7e 91       	ld	r23, -X
     d14:	70 61       	ori	r23, 0x10	; 16
     d16:	7d 93       	st	X+, r23
     d18:	30 f0       	brcs	.+12     	; 0xd26 <__ftoa_engine+0x19a>
     d1a:	83 95       	inc	r24
     d1c:	71 e3       	ldi	r23, 0x31	; 49
     d1e:	7d 93       	st	X+, r23
     d20:	70 e3       	ldi	r23, 0x30	; 48
     d22:	2a 95       	dec	r18
     d24:	e1 f7       	brne	.-8      	; 0xd1e <__ftoa_engine+0x192>
     d26:	11 24       	eor	r1, r1
     d28:	ef 90       	pop	r14
     d2a:	ff 90       	pop	r15
     d2c:	0f 91       	pop	r16
     d2e:	1f 91       	pop	r17
     d30:	cf 91       	pop	r28
     d32:	df 91       	pop	r29
     d34:	99 27       	eor	r25, r25
     d36:	87 fd       	sbrc	r24, 7
     d38:	90 95       	com	r25
     d3a:	08 95       	ret

00000d3c <strnlen_P>:
     d3c:	fc 01       	movw	r30, r24
     d3e:	05 90       	lpm	r0, Z+
     d40:	61 50       	subi	r22, 0x01	; 1
     d42:	70 40       	sbci	r23, 0x00	; 0
     d44:	01 10       	cpse	r0, r1
     d46:	d8 f7       	brcc	.-10     	; 0xd3e <strnlen_P+0x2>
     d48:	80 95       	com	r24
     d4a:	90 95       	com	r25
     d4c:	8e 0f       	add	r24, r30
     d4e:	9f 1f       	adc	r25, r31
     d50:	08 95       	ret

00000d52 <strnlen>:
     d52:	fc 01       	movw	r30, r24
     d54:	61 50       	subi	r22, 0x01	; 1
     d56:	70 40       	sbci	r23, 0x00	; 0
     d58:	01 90       	ld	r0, Z+
     d5a:	01 10       	cpse	r0, r1
     d5c:	d8 f7       	brcc	.-10     	; 0xd54 <strnlen+0x2>
     d5e:	80 95       	com	r24
     d60:	90 95       	com	r25
     d62:	8e 0f       	add	r24, r30
     d64:	9f 1f       	adc	r25, r31
     d66:	08 95       	ret

00000d68 <fdevopen>:
     d68:	0f 93       	push	r16
     d6a:	1f 93       	push	r17
     d6c:	cf 93       	push	r28
     d6e:	df 93       	push	r29
     d70:	00 97       	sbiw	r24, 0x00	; 0
     d72:	31 f4       	brne	.+12     	; 0xd80 <fdevopen+0x18>
     d74:	61 15       	cp	r22, r1
     d76:	71 05       	cpc	r23, r1
     d78:	19 f4       	brne	.+6      	; 0xd80 <fdevopen+0x18>
     d7a:	80 e0       	ldi	r24, 0x00	; 0
     d7c:	90 e0       	ldi	r25, 0x00	; 0
     d7e:	39 c0       	rjmp	.+114    	; 0xdf2 <fdevopen+0x8a>
     d80:	8b 01       	movw	r16, r22
     d82:	ec 01       	movw	r28, r24
     d84:	6e e0       	ldi	r22, 0x0E	; 14
     d86:	70 e0       	ldi	r23, 0x00	; 0
     d88:	81 e0       	ldi	r24, 0x01	; 1
     d8a:	90 e0       	ldi	r25, 0x00	; 0
     d8c:	e4 d0       	rcall	.+456    	; 0xf56 <calloc>
     d8e:	fc 01       	movw	r30, r24
     d90:	89 2b       	or	r24, r25
     d92:	99 f3       	breq	.-26     	; 0xd7a <fdevopen+0x12>
     d94:	80 e8       	ldi	r24, 0x80	; 128
     d96:	83 83       	std	Z+3, r24	; 0x03
     d98:	01 15       	cp	r16, r1
     d9a:	11 05       	cpc	r17, r1
     d9c:	71 f0       	breq	.+28     	; 0xdba <fdevopen+0x52>
     d9e:	13 87       	std	Z+11, r17	; 0x0b
     da0:	02 87       	std	Z+10, r16	; 0x0a
     da2:	81 e8       	ldi	r24, 0x81	; 129
     da4:	83 83       	std	Z+3, r24	; 0x03
     da6:	80 91 36 01 	lds	r24, 0x0136	; 0x800136 <__iob>
     daa:	90 91 37 01 	lds	r25, 0x0137	; 0x800137 <__iob+0x1>
     dae:	89 2b       	or	r24, r25
     db0:	21 f4       	brne	.+8      	; 0xdba <fdevopen+0x52>
     db2:	f0 93 37 01 	sts	0x0137, r31	; 0x800137 <__iob+0x1>
     db6:	e0 93 36 01 	sts	0x0136, r30	; 0x800136 <__iob>
     dba:	20 97       	sbiw	r28, 0x00	; 0
     dbc:	c9 f0       	breq	.+50     	; 0xdf0 <fdevopen+0x88>
     dbe:	d1 87       	std	Z+9, r29	; 0x09
     dc0:	c0 87       	std	Z+8, r28	; 0x08
     dc2:	83 81       	ldd	r24, Z+3	; 0x03
     dc4:	82 60       	ori	r24, 0x02	; 2
     dc6:	83 83       	std	Z+3, r24	; 0x03
     dc8:	80 91 38 01 	lds	r24, 0x0138	; 0x800138 <__iob+0x2>
     dcc:	90 91 39 01 	lds	r25, 0x0139	; 0x800139 <__iob+0x3>
     dd0:	89 2b       	or	r24, r25
     dd2:	71 f4       	brne	.+28     	; 0xdf0 <fdevopen+0x88>
     dd4:	f0 93 39 01 	sts	0x0139, r31	; 0x800139 <__iob+0x3>
     dd8:	e0 93 38 01 	sts	0x0138, r30	; 0x800138 <__iob+0x2>
     ddc:	80 91 3a 01 	lds	r24, 0x013A	; 0x80013a <__iob+0x4>
     de0:	90 91 3b 01 	lds	r25, 0x013B	; 0x80013b <__iob+0x5>
     de4:	89 2b       	or	r24, r25
     de6:	21 f4       	brne	.+8      	; 0xdf0 <fdevopen+0x88>
     de8:	f0 93 3b 01 	sts	0x013B, r31	; 0x80013b <__iob+0x5>
     dec:	e0 93 3a 01 	sts	0x013A, r30	; 0x80013a <__iob+0x4>
     df0:	cf 01       	movw	r24, r30
     df2:	df 91       	pop	r29
     df4:	cf 91       	pop	r28
     df6:	1f 91       	pop	r17
     df8:	0f 91       	pop	r16
     dfa:	08 95       	ret

00000dfc <fputc>:
     dfc:	0f 93       	push	r16
     dfe:	1f 93       	push	r17
     e00:	cf 93       	push	r28
     e02:	df 93       	push	r29
     e04:	fb 01       	movw	r30, r22
     e06:	23 81       	ldd	r18, Z+3	; 0x03
     e08:	21 fd       	sbrc	r18, 1
     e0a:	03 c0       	rjmp	.+6      	; 0xe12 <fputc+0x16>
     e0c:	8f ef       	ldi	r24, 0xFF	; 255
     e0e:	9f ef       	ldi	r25, 0xFF	; 255
     e10:	2c c0       	rjmp	.+88     	; 0xe6a <fputc+0x6e>
     e12:	22 ff       	sbrs	r18, 2
     e14:	16 c0       	rjmp	.+44     	; 0xe42 <fputc+0x46>
     e16:	46 81       	ldd	r20, Z+6	; 0x06
     e18:	57 81       	ldd	r21, Z+7	; 0x07
     e1a:	24 81       	ldd	r18, Z+4	; 0x04
     e1c:	35 81       	ldd	r19, Z+5	; 0x05
     e1e:	42 17       	cp	r20, r18
     e20:	53 07       	cpc	r21, r19
     e22:	44 f4       	brge	.+16     	; 0xe34 <fputc+0x38>
     e24:	a0 81       	ld	r26, Z
     e26:	b1 81       	ldd	r27, Z+1	; 0x01
     e28:	9d 01       	movw	r18, r26
     e2a:	2f 5f       	subi	r18, 0xFF	; 255
     e2c:	3f 4f       	sbci	r19, 0xFF	; 255
     e2e:	31 83       	std	Z+1, r19	; 0x01
     e30:	20 83       	st	Z, r18
     e32:	8c 93       	st	X, r24
     e34:	26 81       	ldd	r18, Z+6	; 0x06
     e36:	37 81       	ldd	r19, Z+7	; 0x07
     e38:	2f 5f       	subi	r18, 0xFF	; 255
     e3a:	3f 4f       	sbci	r19, 0xFF	; 255
     e3c:	37 83       	std	Z+7, r19	; 0x07
     e3e:	26 83       	std	Z+6, r18	; 0x06
     e40:	14 c0       	rjmp	.+40     	; 0xe6a <fputc+0x6e>
     e42:	8b 01       	movw	r16, r22
     e44:	ec 01       	movw	r28, r24
     e46:	fb 01       	movw	r30, r22
     e48:	00 84       	ldd	r0, Z+8	; 0x08
     e4a:	f1 85       	ldd	r31, Z+9	; 0x09
     e4c:	e0 2d       	mov	r30, r0
     e4e:	09 95       	icall
     e50:	89 2b       	or	r24, r25
     e52:	e1 f6       	brne	.-72     	; 0xe0c <fputc+0x10>
     e54:	d8 01       	movw	r26, r16
     e56:	16 96       	adiw	r26, 0x06	; 6
     e58:	8d 91       	ld	r24, X+
     e5a:	9c 91       	ld	r25, X
     e5c:	17 97       	sbiw	r26, 0x07	; 7
     e5e:	01 96       	adiw	r24, 0x01	; 1
     e60:	17 96       	adiw	r26, 0x07	; 7
     e62:	9c 93       	st	X, r25
     e64:	8e 93       	st	-X, r24
     e66:	16 97       	sbiw	r26, 0x06	; 6
     e68:	ce 01       	movw	r24, r28
     e6a:	df 91       	pop	r29
     e6c:	cf 91       	pop	r28
     e6e:	1f 91       	pop	r17
     e70:	0f 91       	pop	r16
     e72:	08 95       	ret

00000e74 <printf>:
     e74:	cf 93       	push	r28
     e76:	df 93       	push	r29
     e78:	cd b7       	in	r28, 0x3d	; 61
     e7a:	de b7       	in	r29, 0x3e	; 62
     e7c:	ae 01       	movw	r20, r28
     e7e:	4b 5f       	subi	r20, 0xFB	; 251
     e80:	5f 4f       	sbci	r21, 0xFF	; 255
     e82:	fa 01       	movw	r30, r20
     e84:	61 91       	ld	r22, Z+
     e86:	71 91       	ld	r23, Z+
     e88:	af 01       	movw	r20, r30
     e8a:	80 91 38 01 	lds	r24, 0x0138	; 0x800138 <__iob+0x2>
     e8e:	90 91 39 01 	lds	r25, 0x0139	; 0x800139 <__iob+0x3>
     e92:	f3 da       	rcall	.-2586   	; 0x47a <vfprintf>
     e94:	df 91       	pop	r29
     e96:	cf 91       	pop	r28
     e98:	08 95       	ret

00000e9a <__ultoa_invert>:
     e9a:	fa 01       	movw	r30, r20
     e9c:	aa 27       	eor	r26, r26
     e9e:	28 30       	cpi	r18, 0x08	; 8
     ea0:	51 f1       	breq	.+84     	; 0xef6 <__ultoa_invert+0x5c>
     ea2:	20 31       	cpi	r18, 0x10	; 16
     ea4:	81 f1       	breq	.+96     	; 0xf06 <__ultoa_invert+0x6c>
     ea6:	e8 94       	clt
     ea8:	6f 93       	push	r22
     eaa:	6e 7f       	andi	r22, 0xFE	; 254
     eac:	6e 5f       	subi	r22, 0xFE	; 254
     eae:	7f 4f       	sbci	r23, 0xFF	; 255
     eb0:	8f 4f       	sbci	r24, 0xFF	; 255
     eb2:	9f 4f       	sbci	r25, 0xFF	; 255
     eb4:	af 4f       	sbci	r26, 0xFF	; 255
     eb6:	b1 e0       	ldi	r27, 0x01	; 1
     eb8:	3e d0       	rcall	.+124    	; 0xf36 <__ultoa_invert+0x9c>
     eba:	b4 e0       	ldi	r27, 0x04	; 4
     ebc:	3c d0       	rcall	.+120    	; 0xf36 <__ultoa_invert+0x9c>
     ebe:	67 0f       	add	r22, r23
     ec0:	78 1f       	adc	r23, r24
     ec2:	89 1f       	adc	r24, r25
     ec4:	9a 1f       	adc	r25, r26
     ec6:	a1 1d       	adc	r26, r1
     ec8:	68 0f       	add	r22, r24
     eca:	79 1f       	adc	r23, r25
     ecc:	8a 1f       	adc	r24, r26
     ece:	91 1d       	adc	r25, r1
     ed0:	a1 1d       	adc	r26, r1
     ed2:	6a 0f       	add	r22, r26
     ed4:	71 1d       	adc	r23, r1
     ed6:	81 1d       	adc	r24, r1
     ed8:	91 1d       	adc	r25, r1
     eda:	a1 1d       	adc	r26, r1
     edc:	20 d0       	rcall	.+64     	; 0xf1e <__ultoa_invert+0x84>
     ede:	09 f4       	brne	.+2      	; 0xee2 <__ultoa_invert+0x48>
     ee0:	68 94       	set
     ee2:	3f 91       	pop	r19
     ee4:	2a e0       	ldi	r18, 0x0A	; 10
     ee6:	26 9f       	mul	r18, r22
     ee8:	11 24       	eor	r1, r1
     eea:	30 19       	sub	r19, r0
     eec:	30 5d       	subi	r19, 0xD0	; 208
     eee:	31 93       	st	Z+, r19
     ef0:	de f6       	brtc	.-74     	; 0xea8 <__ultoa_invert+0xe>
     ef2:	cf 01       	movw	r24, r30
     ef4:	08 95       	ret
     ef6:	46 2f       	mov	r20, r22
     ef8:	47 70       	andi	r20, 0x07	; 7
     efa:	40 5d       	subi	r20, 0xD0	; 208
     efc:	41 93       	st	Z+, r20
     efe:	b3 e0       	ldi	r27, 0x03	; 3
     f00:	0f d0       	rcall	.+30     	; 0xf20 <__ultoa_invert+0x86>
     f02:	c9 f7       	brne	.-14     	; 0xef6 <__ultoa_invert+0x5c>
     f04:	f6 cf       	rjmp	.-20     	; 0xef2 <__ultoa_invert+0x58>
     f06:	46 2f       	mov	r20, r22
     f08:	4f 70       	andi	r20, 0x0F	; 15
     f0a:	40 5d       	subi	r20, 0xD0	; 208
     f0c:	4a 33       	cpi	r20, 0x3A	; 58
     f0e:	18 f0       	brcs	.+6      	; 0xf16 <__ultoa_invert+0x7c>
     f10:	49 5d       	subi	r20, 0xD9	; 217
     f12:	31 fd       	sbrc	r19, 1
     f14:	40 52       	subi	r20, 0x20	; 32
     f16:	41 93       	st	Z+, r20
     f18:	02 d0       	rcall	.+4      	; 0xf1e <__ultoa_invert+0x84>
     f1a:	a9 f7       	brne	.-22     	; 0xf06 <__ultoa_invert+0x6c>
     f1c:	ea cf       	rjmp	.-44     	; 0xef2 <__ultoa_invert+0x58>
     f1e:	b4 e0       	ldi	r27, 0x04	; 4
     f20:	a6 95       	lsr	r26
     f22:	97 95       	ror	r25
     f24:	87 95       	ror	r24
     f26:	77 95       	ror	r23
     f28:	67 95       	ror	r22
     f2a:	ba 95       	dec	r27
     f2c:	c9 f7       	brne	.-14     	; 0xf20 <__ultoa_invert+0x86>
     f2e:	00 97       	sbiw	r24, 0x00	; 0
     f30:	61 05       	cpc	r22, r1
     f32:	71 05       	cpc	r23, r1
     f34:	08 95       	ret
     f36:	9b 01       	movw	r18, r22
     f38:	ac 01       	movw	r20, r24
     f3a:	0a 2e       	mov	r0, r26
     f3c:	06 94       	lsr	r0
     f3e:	57 95       	ror	r21
     f40:	47 95       	ror	r20
     f42:	37 95       	ror	r19
     f44:	27 95       	ror	r18
     f46:	ba 95       	dec	r27
     f48:	c9 f7       	brne	.-14     	; 0xf3c <__ultoa_invert+0xa2>
     f4a:	62 0f       	add	r22, r18
     f4c:	73 1f       	adc	r23, r19
     f4e:	84 1f       	adc	r24, r20
     f50:	95 1f       	adc	r25, r21
     f52:	a0 1d       	adc	r26, r0
     f54:	08 95       	ret

00000f56 <calloc>:
     f56:	0f 93       	push	r16
     f58:	1f 93       	push	r17
     f5a:	cf 93       	push	r28
     f5c:	df 93       	push	r29
     f5e:	86 9f       	mul	r24, r22
     f60:	80 01       	movw	r16, r0
     f62:	87 9f       	mul	r24, r23
     f64:	10 0d       	add	r17, r0
     f66:	96 9f       	mul	r25, r22
     f68:	10 0d       	add	r17, r0
     f6a:	11 24       	eor	r1, r1
     f6c:	c8 01       	movw	r24, r16
     f6e:	0d d0       	rcall	.+26     	; 0xf8a <malloc>
     f70:	ec 01       	movw	r28, r24
     f72:	00 97       	sbiw	r24, 0x00	; 0
     f74:	21 f0       	breq	.+8      	; 0xf7e <calloc+0x28>
     f76:	a8 01       	movw	r20, r16
     f78:	60 e0       	ldi	r22, 0x00	; 0
     f7a:	70 e0       	ldi	r23, 0x00	; 0
     f7c:	27 d1       	rcall	.+590    	; 0x11cc <memset>
     f7e:	ce 01       	movw	r24, r28
     f80:	df 91       	pop	r29
     f82:	cf 91       	pop	r28
     f84:	1f 91       	pop	r17
     f86:	0f 91       	pop	r16
     f88:	08 95       	ret

00000f8a <malloc>:
     f8a:	0f 93       	push	r16
     f8c:	1f 93       	push	r17
     f8e:	cf 93       	push	r28
     f90:	df 93       	push	r29
     f92:	82 30       	cpi	r24, 0x02	; 2
     f94:	91 05       	cpc	r25, r1
     f96:	10 f4       	brcc	.+4      	; 0xf9c <malloc+0x12>
     f98:	82 e0       	ldi	r24, 0x02	; 2
     f9a:	90 e0       	ldi	r25, 0x00	; 0
     f9c:	e0 91 3e 01 	lds	r30, 0x013E	; 0x80013e <__flp>
     fa0:	f0 91 3f 01 	lds	r31, 0x013F	; 0x80013f <__flp+0x1>
     fa4:	20 e0       	ldi	r18, 0x00	; 0
     fa6:	30 e0       	ldi	r19, 0x00	; 0
     fa8:	a0 e0       	ldi	r26, 0x00	; 0
     faa:	b0 e0       	ldi	r27, 0x00	; 0
     fac:	30 97       	sbiw	r30, 0x00	; 0
     fae:	19 f1       	breq	.+70     	; 0xff6 <malloc+0x6c>
     fb0:	40 81       	ld	r20, Z
     fb2:	51 81       	ldd	r21, Z+1	; 0x01
     fb4:	02 81       	ldd	r16, Z+2	; 0x02
     fb6:	13 81       	ldd	r17, Z+3	; 0x03
     fb8:	48 17       	cp	r20, r24
     fba:	59 07       	cpc	r21, r25
     fbc:	c8 f0       	brcs	.+50     	; 0xff0 <malloc+0x66>
     fbe:	84 17       	cp	r24, r20
     fc0:	95 07       	cpc	r25, r21
     fc2:	69 f4       	brne	.+26     	; 0xfde <malloc+0x54>
     fc4:	10 97       	sbiw	r26, 0x00	; 0
     fc6:	31 f0       	breq	.+12     	; 0xfd4 <malloc+0x4a>
     fc8:	12 96       	adiw	r26, 0x02	; 2
     fca:	0c 93       	st	X, r16
     fcc:	12 97       	sbiw	r26, 0x02	; 2
     fce:	13 96       	adiw	r26, 0x03	; 3
     fd0:	1c 93       	st	X, r17
     fd2:	27 c0       	rjmp	.+78     	; 0x1022 <malloc+0x98>
     fd4:	00 93 3e 01 	sts	0x013E, r16	; 0x80013e <__flp>
     fd8:	10 93 3f 01 	sts	0x013F, r17	; 0x80013f <__flp+0x1>
     fdc:	22 c0       	rjmp	.+68     	; 0x1022 <malloc+0x98>
     fde:	21 15       	cp	r18, r1
     fe0:	31 05       	cpc	r19, r1
     fe2:	19 f0       	breq	.+6      	; 0xfea <malloc+0x60>
     fe4:	42 17       	cp	r20, r18
     fe6:	53 07       	cpc	r21, r19
     fe8:	18 f4       	brcc	.+6      	; 0xff0 <malloc+0x66>
     fea:	9a 01       	movw	r18, r20
     fec:	bd 01       	movw	r22, r26
     fee:	ef 01       	movw	r28, r30
     ff0:	df 01       	movw	r26, r30
     ff2:	f8 01       	movw	r30, r16
     ff4:	db cf       	rjmp	.-74     	; 0xfac <malloc+0x22>
     ff6:	21 15       	cp	r18, r1
     ff8:	31 05       	cpc	r19, r1
     ffa:	f9 f0       	breq	.+62     	; 0x103a <malloc+0xb0>
     ffc:	28 1b       	sub	r18, r24
     ffe:	39 0b       	sbc	r19, r25
    1000:	24 30       	cpi	r18, 0x04	; 4
    1002:	31 05       	cpc	r19, r1
    1004:	80 f4       	brcc	.+32     	; 0x1026 <malloc+0x9c>
    1006:	8a 81       	ldd	r24, Y+2	; 0x02
    1008:	9b 81       	ldd	r25, Y+3	; 0x03
    100a:	61 15       	cp	r22, r1
    100c:	71 05       	cpc	r23, r1
    100e:	21 f0       	breq	.+8      	; 0x1018 <malloc+0x8e>
    1010:	fb 01       	movw	r30, r22
    1012:	93 83       	std	Z+3, r25	; 0x03
    1014:	82 83       	std	Z+2, r24	; 0x02
    1016:	04 c0       	rjmp	.+8      	; 0x1020 <malloc+0x96>
    1018:	90 93 3f 01 	sts	0x013F, r25	; 0x80013f <__flp+0x1>
    101c:	80 93 3e 01 	sts	0x013E, r24	; 0x80013e <__flp>
    1020:	fe 01       	movw	r30, r28
    1022:	32 96       	adiw	r30, 0x02	; 2
    1024:	44 c0       	rjmp	.+136    	; 0x10ae <malloc+0x124>
    1026:	fe 01       	movw	r30, r28
    1028:	e2 0f       	add	r30, r18
    102a:	f3 1f       	adc	r31, r19
    102c:	81 93       	st	Z+, r24
    102e:	91 93       	st	Z+, r25
    1030:	22 50       	subi	r18, 0x02	; 2
    1032:	31 09       	sbc	r19, r1
    1034:	39 83       	std	Y+1, r19	; 0x01
    1036:	28 83       	st	Y, r18
    1038:	3a c0       	rjmp	.+116    	; 0x10ae <malloc+0x124>
    103a:	20 91 3c 01 	lds	r18, 0x013C	; 0x80013c <__brkval>
    103e:	30 91 3d 01 	lds	r19, 0x013D	; 0x80013d <__brkval+0x1>
    1042:	23 2b       	or	r18, r19
    1044:	41 f4       	brne	.+16     	; 0x1056 <malloc+0xcc>
    1046:	20 91 02 01 	lds	r18, 0x0102	; 0x800102 <__malloc_heap_start>
    104a:	30 91 03 01 	lds	r19, 0x0103	; 0x800103 <__malloc_heap_start+0x1>
    104e:	30 93 3d 01 	sts	0x013D, r19	; 0x80013d <__brkval+0x1>
    1052:	20 93 3c 01 	sts	0x013C, r18	; 0x80013c <__brkval>
    1056:	20 91 00 01 	lds	r18, 0x0100	; 0x800100 <__DATA_REGION_ORIGIN__>
    105a:	30 91 01 01 	lds	r19, 0x0101	; 0x800101 <__DATA_REGION_ORIGIN__+0x1>
    105e:	21 15       	cp	r18, r1
    1060:	31 05       	cpc	r19, r1
    1062:	41 f4       	brne	.+16     	; 0x1074 <malloc+0xea>
    1064:	2d b7       	in	r18, 0x3d	; 61
    1066:	3e b7       	in	r19, 0x3e	; 62
    1068:	40 91 04 01 	lds	r20, 0x0104	; 0x800104 <__malloc_margin>
    106c:	50 91 05 01 	lds	r21, 0x0105	; 0x800105 <__malloc_margin+0x1>
    1070:	24 1b       	sub	r18, r20
    1072:	35 0b       	sbc	r19, r21
    1074:	e0 91 3c 01 	lds	r30, 0x013C	; 0x80013c <__brkval>
    1078:	f0 91 3d 01 	lds	r31, 0x013D	; 0x80013d <__brkval+0x1>
    107c:	e2 17       	cp	r30, r18
    107e:	f3 07       	cpc	r31, r19
    1080:	a0 f4       	brcc	.+40     	; 0x10aa <malloc+0x120>
    1082:	2e 1b       	sub	r18, r30
    1084:	3f 0b       	sbc	r19, r31
    1086:	28 17       	cp	r18, r24
    1088:	39 07       	cpc	r19, r25
    108a:	78 f0       	brcs	.+30     	; 0x10aa <malloc+0x120>
    108c:	ac 01       	movw	r20, r24
    108e:	4e 5f       	subi	r20, 0xFE	; 254
    1090:	5f 4f       	sbci	r21, 0xFF	; 255
    1092:	24 17       	cp	r18, r20
    1094:	35 07       	cpc	r19, r21
    1096:	48 f0       	brcs	.+18     	; 0x10aa <malloc+0x120>
    1098:	4e 0f       	add	r20, r30
    109a:	5f 1f       	adc	r21, r31
    109c:	50 93 3d 01 	sts	0x013D, r21	; 0x80013d <__brkval+0x1>
    10a0:	40 93 3c 01 	sts	0x013C, r20	; 0x80013c <__brkval>
    10a4:	81 93       	st	Z+, r24
    10a6:	91 93       	st	Z+, r25
    10a8:	02 c0       	rjmp	.+4      	; 0x10ae <malloc+0x124>
    10aa:	e0 e0       	ldi	r30, 0x00	; 0
    10ac:	f0 e0       	ldi	r31, 0x00	; 0
    10ae:	cf 01       	movw	r24, r30
    10b0:	df 91       	pop	r29
    10b2:	cf 91       	pop	r28
    10b4:	1f 91       	pop	r17
    10b6:	0f 91       	pop	r16
    10b8:	08 95       	ret

000010ba <free>:
    10ba:	cf 93       	push	r28
    10bc:	df 93       	push	r29
    10be:	00 97       	sbiw	r24, 0x00	; 0
    10c0:	09 f4       	brne	.+2      	; 0x10c4 <free+0xa>
    10c2:	81 c0       	rjmp	.+258    	; 0x11c6 <__stack+0xc7>
    10c4:	fc 01       	movw	r30, r24
    10c6:	32 97       	sbiw	r30, 0x02	; 2
    10c8:	13 82       	std	Z+3, r1	; 0x03
    10ca:	12 82       	std	Z+2, r1	; 0x02
    10cc:	a0 91 3e 01 	lds	r26, 0x013E	; 0x80013e <__flp>
    10d0:	b0 91 3f 01 	lds	r27, 0x013F	; 0x80013f <__flp+0x1>
    10d4:	10 97       	sbiw	r26, 0x00	; 0
    10d6:	81 f4       	brne	.+32     	; 0x10f8 <free+0x3e>
    10d8:	20 81       	ld	r18, Z
    10da:	31 81       	ldd	r19, Z+1	; 0x01
    10dc:	82 0f       	add	r24, r18
    10de:	93 1f       	adc	r25, r19
    10e0:	20 91 3c 01 	lds	r18, 0x013C	; 0x80013c <__brkval>
    10e4:	30 91 3d 01 	lds	r19, 0x013D	; 0x80013d <__brkval+0x1>
    10e8:	28 17       	cp	r18, r24
    10ea:	39 07       	cpc	r19, r25
    10ec:	51 f5       	brne	.+84     	; 0x1142 <__stack+0x43>
    10ee:	f0 93 3d 01 	sts	0x013D, r31	; 0x80013d <__brkval+0x1>
    10f2:	e0 93 3c 01 	sts	0x013C, r30	; 0x80013c <__brkval>
    10f6:	67 c0       	rjmp	.+206    	; 0x11c6 <__stack+0xc7>
    10f8:	ed 01       	movw	r28, r26
    10fa:	20 e0       	ldi	r18, 0x00	; 0
    10fc:	30 e0       	ldi	r19, 0x00	; 0
    10fe:	ce 17       	cp	r28, r30
    1100:	df 07       	cpc	r29, r31
    1102:	40 f4       	brcc	.+16     	; 0x1114 <__stack+0x15>
    1104:	4a 81       	ldd	r20, Y+2	; 0x02
    1106:	5b 81       	ldd	r21, Y+3	; 0x03
    1108:	9e 01       	movw	r18, r28
    110a:	41 15       	cp	r20, r1
    110c:	51 05       	cpc	r21, r1
    110e:	f1 f0       	breq	.+60     	; 0x114c <__stack+0x4d>
    1110:	ea 01       	movw	r28, r20
    1112:	f5 cf       	rjmp	.-22     	; 0x10fe <free+0x44>
    1114:	d3 83       	std	Z+3, r29	; 0x03
    1116:	c2 83       	std	Z+2, r28	; 0x02
    1118:	40 81       	ld	r20, Z
    111a:	51 81       	ldd	r21, Z+1	; 0x01
    111c:	84 0f       	add	r24, r20
    111e:	95 1f       	adc	r25, r21
    1120:	c8 17       	cp	r28, r24
    1122:	d9 07       	cpc	r29, r25
    1124:	59 f4       	brne	.+22     	; 0x113c <__stack+0x3d>
    1126:	88 81       	ld	r24, Y
    1128:	99 81       	ldd	r25, Y+1	; 0x01
    112a:	84 0f       	add	r24, r20
    112c:	95 1f       	adc	r25, r21
    112e:	02 96       	adiw	r24, 0x02	; 2
    1130:	91 83       	std	Z+1, r25	; 0x01
    1132:	80 83       	st	Z, r24
    1134:	8a 81       	ldd	r24, Y+2	; 0x02
    1136:	9b 81       	ldd	r25, Y+3	; 0x03
    1138:	93 83       	std	Z+3, r25	; 0x03
    113a:	82 83       	std	Z+2, r24	; 0x02
    113c:	21 15       	cp	r18, r1
    113e:	31 05       	cpc	r19, r1
    1140:	29 f4       	brne	.+10     	; 0x114c <__stack+0x4d>
    1142:	f0 93 3f 01 	sts	0x013F, r31	; 0x80013f <__flp+0x1>
    1146:	e0 93 3e 01 	sts	0x013E, r30	; 0x80013e <__flp>
    114a:	3d c0       	rjmp	.+122    	; 0x11c6 <__stack+0xc7>
    114c:	e9 01       	movw	r28, r18
    114e:	fb 83       	std	Y+3, r31	; 0x03
    1150:	ea 83       	std	Y+2, r30	; 0x02
    1152:	49 91       	ld	r20, Y+
    1154:	59 91       	ld	r21, Y+
    1156:	c4 0f       	add	r28, r20
    1158:	d5 1f       	adc	r29, r21
    115a:	ec 17       	cp	r30, r28
    115c:	fd 07       	cpc	r31, r29
    115e:	61 f4       	brne	.+24     	; 0x1178 <__stack+0x79>
    1160:	80 81       	ld	r24, Z
    1162:	91 81       	ldd	r25, Z+1	; 0x01
    1164:	84 0f       	add	r24, r20
    1166:	95 1f       	adc	r25, r21
    1168:	02 96       	adiw	r24, 0x02	; 2
    116a:	e9 01       	movw	r28, r18
    116c:	99 83       	std	Y+1, r25	; 0x01
    116e:	88 83       	st	Y, r24
    1170:	82 81       	ldd	r24, Z+2	; 0x02
    1172:	93 81       	ldd	r25, Z+3	; 0x03
    1174:	9b 83       	std	Y+3, r25	; 0x03
    1176:	8a 83       	std	Y+2, r24	; 0x02
    1178:	e0 e0       	ldi	r30, 0x00	; 0
    117a:	f0 e0       	ldi	r31, 0x00	; 0
    117c:	12 96       	adiw	r26, 0x02	; 2
    117e:	8d 91       	ld	r24, X+
    1180:	9c 91       	ld	r25, X
    1182:	13 97       	sbiw	r26, 0x03	; 3
    1184:	00 97       	sbiw	r24, 0x00	; 0
    1186:	19 f0       	breq	.+6      	; 0x118e <__stack+0x8f>
    1188:	fd 01       	movw	r30, r26
    118a:	dc 01       	movw	r26, r24
    118c:	f7 cf       	rjmp	.-18     	; 0x117c <__stack+0x7d>
    118e:	8d 91       	ld	r24, X+
    1190:	9c 91       	ld	r25, X
    1192:	11 97       	sbiw	r26, 0x01	; 1
    1194:	9d 01       	movw	r18, r26
    1196:	2e 5f       	subi	r18, 0xFE	; 254
    1198:	3f 4f       	sbci	r19, 0xFF	; 255
    119a:	82 0f       	add	r24, r18
    119c:	93 1f       	adc	r25, r19
    119e:	20 91 3c 01 	lds	r18, 0x013C	; 0x80013c <__brkval>
    11a2:	30 91 3d 01 	lds	r19, 0x013D	; 0x80013d <__brkval+0x1>
    11a6:	28 17       	cp	r18, r24
    11a8:	39 07       	cpc	r19, r25
    11aa:	69 f4       	brne	.+26     	; 0x11c6 <__stack+0xc7>
    11ac:	30 97       	sbiw	r30, 0x00	; 0
    11ae:	29 f4       	brne	.+10     	; 0x11ba <__stack+0xbb>
    11b0:	10 92 3f 01 	sts	0x013F, r1	; 0x80013f <__flp+0x1>
    11b4:	10 92 3e 01 	sts	0x013E, r1	; 0x80013e <__flp>
    11b8:	02 c0       	rjmp	.+4      	; 0x11be <__stack+0xbf>
    11ba:	13 82       	std	Z+3, r1	; 0x03
    11bc:	12 82       	std	Z+2, r1	; 0x02
    11be:	b0 93 3d 01 	sts	0x013D, r27	; 0x80013d <__brkval+0x1>
    11c2:	a0 93 3c 01 	sts	0x013C, r26	; 0x80013c <__brkval>
    11c6:	df 91       	pop	r29
    11c8:	cf 91       	pop	r28
    11ca:	08 95       	ret

000011cc <memset>:
    11cc:	dc 01       	movw	r26, r24
    11ce:	01 c0       	rjmp	.+2      	; 0x11d2 <memset+0x6>
    11d0:	6d 93       	st	X+, r22
    11d2:	41 50       	subi	r20, 0x01	; 1
    11d4:	50 40       	sbci	r21, 0x00	; 0
    11d6:	e0 f7       	brcc	.-8      	; 0x11d0 <memset+0x4>
    11d8:	08 95       	ret

000011da <_exit>:
    11da:	f8 94       	cli

000011dc <__stop_program>:
    11dc:	ff cf       	rjmp	.-2      	; 0x11dc <__stop_program>
